EXPORTS
	_ZN15CClkUiModelBase16SetModelObserverEP17MClkModelObserver @ 1 NONAME
	_ZN15CClkUiModelBase17SetListenerActiveEP21CClkUiMdlListenerBase @ 2 NONAME
	_ZN15CClkUiModelBase4StopEv @ 3 NONAME
	_ZN15CClkUiModelBase5StartEv @ 4 NONAME
	_ZN15CClkUiModelBase7NotifyLEi @ 5 NONAME
	_ZN15CClkUiModelBaseC2Ev @ 6 NONAME
	_ZN15CClkUiModelBaseD0Ev @ 7 NONAME
	_ZN15CClkUiModelBaseD1Ev @ 8 NONAME
	_ZN15CClkUiModelBaseD2Ev @ 9 NONAME
	_ZN16CClkUiAlarmModel13ClockAlarmSetERK13SClkAlarmInfo @ 10 NONAME
	_ZN16CClkUiAlarmModel14GetClkAlarmIdsER6RArrayIiE @ 11 NONAME
	_ZN16CClkUiAlarmModel16ClockAlarmEnableEi12TAlarmStatus @ 12 NONAME
	_ZN16CClkUiAlarmModel16DeleteClockAlarmEi @ 13 NONAME
	_ZN16CClkUiAlarmModel17SaveLatestAlarmIdEi @ 14 NONAME
	_ZN16CClkUiAlarmModel25GetAlarmQueuedOrSnoozedIdERii @ 15 NONAME
	_ZN16CClkUiAlarmModel4NewLEP17MClkModelObserveri @ 16 NONAME
	_ZN16CClkUiAlarmModel7AlarmIdEv @ 17 NONAME
	_ZN16CClkUiAlarmModelD0Ev @ 18 NONAME
	_ZN16CClkUiAlarmModelD1Ev @ 19 NONAME
	_ZN16CClkUiAlarmModelD2Ev @ 20 NONAME
	_ZN17CClkUiClkSrvModel13GetCurrentMccERi @ 21 NONAME
	_ZN17CClkUiClkSrvModel15GetProtocolInfoEiR14timeAttributes @ 22 NONAME
	_ZN17CClkUiClkSrvModel16ActivateProtocolEi @ 23 NONAME
	_ZN17CClkUiClkSrvModel16IsProtocolActiveEi @ 24 NONAME
	_ZN17CClkUiClkSrvModel16ReturnWhoChangedEv @ 25 NONAME
	_ZN17CClkUiClkSrvModel17ReturnWhatChangedEv @ 26 NONAME
	_ZN17CClkUiClkSrvModel18DeActivateProtocolEi @ 27 NONAME
	_ZN17CClkUiClkSrvModel20ActivateAllProtocolsEv @ 28 NONAME
	_ZN17CClkUiClkSrvModel20GetCurrentTimeZondIdERi @ 29 NONAME
	_ZN17CClkUiClkSrvModel22DeActivateAllProtocolsEv @ 30 NONAME
	_ZN17CClkUiClkSrvModel4NewLEP17MClkModelObserveri @ 31 NONAME
	_ZN17CClkUiClkSrvModelD0Ev @ 32 NONAME
	_ZN17CClkUiClkSrvModelD1Ev @ 33 NONAME
	_ZN17CClkUiClkSrvModelD2Ev @ 34 NONAME
	_ZN18CClkUiIdleObserver10ConstructLEP17MClkModelObserveri @ 35 NONAME
	_ZN18CClkUiIdleObserver12DoIdleCancelEv @ 36 NONAME
	_ZN18CClkUiIdleObserver13DoIdleNotifyLEv @ 37 NONAME
	_ZN18CClkUiIdleObserver13HandleUpdateLEi @ 38 NONAME
	_ZN18CClkUiIdleObserverC1Ev @ 39 NONAME
	_ZN18CClkUiIdleObserverC2Ev @ 40 NONAME
	_ZN18CClkUiIdleObserverD0Ev @ 41 NONAME
	_ZN18CClkUiIdleObserverD1Ev @ 42 NONAME
	_ZN18CClkUiIdleObserverD2Ev @ 43 NONAME
	_ZN21CClkUiMdlListenerBase4RunLEv @ 44 NONAME
	_ZN21CClkUiMdlListenerBaseC2ER15CClkUiModelBasei @ 45 NONAME
	_ZN23CClkUiAlarmIdleObserver4NewLEP17MClkModelObserveri @ 46 NONAME
	_ZN24CClkUiClkSrvIdleObserver4NewLEP17MClkModelObserveri @ 47 NONAME
	_ZN29CClkUiMdlIntermediateObserver13HandleUpdateLEi @ 48 NONAME
	_ZN29CClkUiMdlIntermediateObserver16SetModelObserverEP17MClkModelObserver @ 49 NONAME
	_ZN29CClkUiMdlIntermediateObserver7NotifyLEi @ 50 NONAME
	_ZNK16CClkUiAlarmModel14ClockAlarmInfoEiR13SClkAlarmInfo @ 51 NONAME
	_ZNK16CClkUiAlarmModel14ClockAlarmTypeER4TUidi @ 52 NONAME
	_ZNK16CClkUiAlarmModel16ClockAlarmStatusEi @ 53 NONAME
	_ZTI15CClkUiModelBase @ 54 NONAME ; #<TI>#
	_ZTI16CClkUiAlarmModel @ 55 NONAME ; #<TI>#
	_ZTI17CClkUiClkSrvModel @ 56 NONAME ; #<TI>#
	_ZTI18CClkUiIdleObserver @ 57 NONAME ; #<TI>#
	_ZTI20CClkUiClkSrvListener @ 58 NONAME ; #<TI>#
	_ZTI21CClkUiMdlListenerBase @ 59 NONAME ; #<TI>#
	_ZTI22CClkUiMdlAlarmListener @ 60 NONAME ; #<TI>#
	_ZTI29CClkUiMdlIntermediateObserver @ 61 NONAME ; #<TI>#
	_ZTV15CClkUiModelBase @ 62 NONAME ; #<VT>#
	_ZTV16CClkUiAlarmModel @ 63 NONAME ; #<VT>#
	_ZTV17CClkUiClkSrvModel @ 64 NONAME ; #<VT>#
	_ZTV18CClkUiIdleObserver @ 65 NONAME ; #<VT>#
	_ZTV20CClkUiClkSrvListener @ 66 NONAME ; #<VT>#
	_ZTV21CClkUiMdlListenerBase @ 67 NONAME ; #<VT>#
	_ZTV22CClkUiMdlAlarmListener @ 68 NONAME ; #<VT>#
	_ZTV29CClkUiMdlIntermediateObserver @ 69 NONAME ; #<VT>#
	_ZThn4_N18CClkUiIdleObserver13HandleUpdateLEi @ 70 NONAME ; #<thunk>#
	_ZThn4_N29CClkUiMdlIntermediateObserver13HandleUpdateLEi @ 71 NONAME ; #<thunk>#
	_ZN16CClkUiAlarmModel17AlarmRemoveSnoozeEi @ 72 NONAME

