EXPORTS
	?deleteInstance@TimezoneClient@@QAEXXZ @ 1 NONAME ; void TimezoneClient::deleteInstance(void)
	?addCity@TimezoneClient@@QAE?AULocationInfo@@HAAVQString@@H@Z @ 2 NONAME ; struct LocationInfo TimezoneClient::addCity(int, class QString &, int)
	?isNull@TimezoneClient@@QAE_NXZ @ 3 NONAME ; bool TimezoneClient::isNull(void)
	??_ETimezoneClient@@UAE@I@Z @ 4 NONAME ; TimezoneClient::~TimezoneClient(unsigned int)
	?getLocations@TimezoneClient@@QAEAAV?$QList@ULocationInfo@@@@XZ @ 5 NONAME ; class QList<struct LocationInfo> & TimezoneClient::getLocations(void)
	?getDstRulesL@TimezoneClient@@AAEXAAVQDateTime@@0H@Z @ 6 NONAME ; void TimezoneClient::getDstRulesL(class QDateTime &, class QDateTime &, int)
	?locationSelectorModel@TimezoneClient@@QAEPAVQStandardItemModel@@XZ @ 7 NONAME ; class QStandardItemModel * TimezoneClient::locationSelectorModel(void)
	?getUtcDstOffsetL@TimezoneClient@@AAE_NAAHABVCTzId@@@Z @ 8 NONAME ; bool TimezoneClient::getUtcDstOffsetL(int &, class CTzId const &)
	??0TimezoneClient@@AAE@XZ @ 9 NONAME ; TimezoneClient::TimezoneClient(void)
	?intToMonth@TimezoneClient@@AAE?AW4TMonth@@H@Z @ 10 NONAME ; enum TMonth TimezoneClient::intToMonth(int)
	?getDstZoneOffset@TimezoneClient@@AAEHH@Z @ 11 NONAME ; int TimezoneClient::getDstZoneOffset(int)
	?environmentCallback@TimezoneClient@@SAHPAX@Z @ 12 NONAME ; int TimezoneClient::environmentCallback(void *)
	?trUtf8@TimezoneClient@@SA?AVQString@@PBD0H@Z @ 13 NONAME ; class QString TimezoneClient::trUtf8(char const *, char const *, int)
	?getStandardOffset@TimezoneClient@@QAEHH@Z @ 14 NONAME ; int TimezoneClient::getStandardOffset(int)
	?getCurrentZoneInfoL@TimezoneClient@@QAE?AULocationInfo@@XZ @ 15 NONAME ; struct LocationInfo TimezoneClient::getCurrentZoneInfoL(void)
	?dstOn@TimezoneClient@@QAE_NH@Z @ 16 NONAME ; bool TimezoneClient::dstOn(int)
	?createWorldClockModel@TimezoneClient@@QAEXXZ @ 17 NONAME ; void TimezoneClient::createWorldClockModel(void)
	?tr@TimezoneClient@@SA?AVQString@@PBD0H@Z @ 18 NONAME ; class QString TimezoneClient::tr(char const *, char const *, int)
	?setAsCurrentLocationL@TimezoneClient@@QAEXAAULocationInfo@@@Z @ 19 NONAME ; void TimezoneClient::setAsCurrentLocationL(struct LocationInfo &)
	?eventMonitor@TimezoneClient@@AAEXABVXQSettingsKey@@ABVQVariant@@@Z @ 20 NONAME ; void TimezoneClient::eventMonitor(class XQSettingsKey const &, class QVariant const &)
	?getInstance@TimezoneClient@@SAPAV1@XZ @ 21 NONAME ; class TimezoneClient * TimezoneClient::getInstance(void)
	?getCityGroupIdByName@TimezoneClient@@AAEHABVQString@@@Z @ 22 NONAME ; int TimezoneClient::getCityGroupIdByName(class QString const &)
	?getCityOffsetByNameAndId@TimezoneClient@@AAEHABVQString@@H@Z @ 23 NONAME ; int TimezoneClient::getCityOffsetByNameAndId(class QString const &, int)
	?getAllTimeZoneOffsets@TimezoneClient@@QAE?AV?$QList@H@@XZ @ 24 NONAME ; class QList<int> TimezoneClient::getAllTimeZoneOffsets(void)
	?getCitiesForCountry@TimezoneClient@@AAEXHAAV?$QMap@VQString@@H@@@Z @ 25 NONAME ; void TimezoneClient::getCitiesForCountry(int, class QMap<class QString, int> &)
	?getCountriesForUTCOffset@TimezoneClient@@QAE?AV?$QList@ULocationInfo@@@@H@Z @ 26 NONAME ; class QList<struct LocationInfo> TimezoneClient::getCountriesForUTCOffset(int)
	??1TimezoneClient@@EAE@XZ @ 27 NONAME ; TimezoneClient::~TimezoneClient(void)
	?timeUpdateOn@TimezoneClient@@QAE_NXZ @ 28 NONAME ; bool TimezoneClient::timeUpdateOn(void)
	?staticMetaObject@TimezoneClient@@2UQMetaObject@@B @ 29 NONAME ; struct QMetaObject const TimezoneClient::staticMetaObject
	?qt_metacast@TimezoneClient@@UAEPAXPBD@Z @ 30 NONAME ; void * TimezoneClient::qt_metacast(char const *)
	?autoTimeUpdateChanged@TimezoneClient@@IAEXH@Z @ 31 NONAME ; void TimezoneClient::autoTimeUpdateChanged(int)
	?trUtf8@TimezoneClient@@SA?AVQString@@PBD0@Z @ 32 NONAME ; class QString TimezoneClient::trUtf8(char const *, char const *)
	?listUpdated@TimezoneClient@@IAEXXZ @ 33 NONAME ; void TimezoneClient::listUpdated(void)
	?getSavedLocations@TimezoneClient@@QAE?AV?$QList@ULocationInfo@@@@XZ @ 34 NONAME ; class QList<struct LocationInfo> TimezoneClient::getSavedLocations(void)
	?getLocationInfo@TimezoneClient@@AAEXHHAAULocationInfo@@@Z @ 35 NONAME ; void TimezoneClient::getLocationInfo(int, int, struct LocationInfo &)
	?getAllTimeZoneIds@TimezoneClient@@QAE?AV?$QList@H@@XZ @ 36 NONAME ; class QList<int> TimezoneClient::getAllTimeZoneIds(void)
	?populateCities@TimezoneClient@@AAEXXZ @ 37 NONAME ; void TimezoneClient::populateCities(void)
	?tr@TimezoneClient@@SA?AVQString@@PBD0@Z @ 38 NONAME ; class QString TimezoneClient::tr(char const *, char const *)
	?setDateTime@TimezoneClient@@QAEXVQDateTime@@@Z @ 39 NONAME ; void TimezoneClient::setDateTime(class QDateTime)
	?metaObject@TimezoneClient@@UBEPBUQMetaObject@@XZ @ 40 NONAME ; struct QMetaObject const * TimezoneClient::metaObject(void) const
	?getStaticMetaObject@TimezoneClient@@SAABUQMetaObject@@XZ @ 41 NONAME ; struct QMetaObject const & TimezoneClient::getStaticMetaObject(void)
	?mTimezoneClient@TimezoneClient@@0PAV1@A @ 42 NONAME ; class TimezoneClient * TimezoneClient::mTimezoneClient
	?cityUpdated@TimezoneClient@@IAEXXZ @ 43 NONAME ; void TimezoneClient::cityUpdated(void)
	?setTimeUpdateOn@TimezoneClient@@QAEX_N@Z @ 44 NONAME ; void TimezoneClient::setTimeUpdateOn(bool)
	?mReferenceCount@TimezoneClient@@0_NA @ 45 NONAME ; bool TimezoneClient::mReferenceCount
	?getCountries@TimezoneClient@@QAEXAAV?$QMap@VQString@@H@@@Z @ 46 NONAME ; void TimezoneClient::getCountries(class QMap<class QString, int> &)
	?checkForDstChange@TimezoneClient@@QAE_NAAUAlarmInfo@@@Z @ 47 NONAME ; bool TimezoneClient::checkForDstChange(struct AlarmInfo &)
	?isDSTOnL@TimezoneClient@@QAE_NH@Z @ 48 NONAME ; bool TimezoneClient::isDSTOnL(int)
	?timechanged@TimezoneClient@@IAEXXZ @ 49 NONAME ; void TimezoneClient::timechanged(void)
	?saveLocations@TimezoneClient@@QAEXABV?$QList@ULocationInfo@@@@@Z @ 50 NONAME ; void TimezoneClient::saveLocations(class QList<struct LocationInfo> const &)
	?qt_metacall@TimezoneClient@@UAEHW4Call@QMetaObject@@HPAPAX@Z @ 51 NONAME ; int TimezoneClient::qt_metacall(enum QMetaObject::Call, int, void * *)

