EXPORTS
	??1CNotepadApi@@UAE@XZ @ 1 NONAME ; public: virtual __thiscall CNotepadApi::~CNotepadApi(void)
	??1CNotepadDialogBase@@UAE@XZ @ 2 NONAME ; public: virtual __thiscall CNotepadDialogBase::~CNotepadDialogBase(void)
	??1CNotepadEditorDialog@@UAE@XZ @ 3 NONAME ; public: virtual __thiscall CNotepadEditorDialog::~CNotepadEditorDialog(void)
	??1CNotepadListDialog@@UAE@XZ @ 4 NONAME ; public: virtual __thiscall CNotepadListDialog::~CNotepadListDialog(void)
	??1CNotepadModel@@UAE@XZ @ 5 NONAME ; public: virtual __thiscall CNotepadModel::~CNotepadModel(void)
	??1CNotepadViewerDialog@@UAE@XZ @ 6 NONAME ; public: virtual __thiscall CNotepadViewerDialog::~CNotepadViewerDialog(void)
	?AddContentL@CNotepadApi@@SAXABVTDesC16@@@Z @ 7 NONAME ; public: static void __cdecl CNotepadApi::AddContentL(class TDesC16 const &)
	?AddContentL@CNotepadModel@@QAEXABVTDesC16@@@Z @ 8 NONAME ; public: void __thiscall CNotepadModel::AddContentL(class TDesC16 const &)
	?CNotepadApi_Reserved@CNotepadApi@@EAEXXZ @ 9 NONAME ; private: virtual void __thiscall CNotepadApi::CNotepadApi_Reserved(void)
	?CNotepadApi_Reserved_Static@CNotepadApi@@CAXXZ @ 10 NONAME ; private: static void __cdecl CNotepadApi::CNotepadApi_Reserved_Static(void)
	?CNotepadDialogBase_Reserved@CNotepadDialogBase@@AAEXXZ @ 11 NONAME ; private: void __thiscall CNotepadDialogBase::CNotepadDialogBase_Reserved(void)
	?CNotepadEditorDialog_Reserved@CNotepadEditorDialog@@AAEXXZ @ 12 NONAME ; private: void __thiscall CNotepadEditorDialog::CNotepadEditorDialog_Reserved(void)
	?CNotepadListDialog_Reserved@CNotepadListDialog@@AAEXXZ @ 13 NONAME ; private: void __thiscall CNotepadListDialog::CNotepadListDialog_Reserved(void)
	?CNotepadModel_Reserved@CNotepadModel@@AAEXXZ @ 14 NONAME ; private: void __thiscall CNotepadModel::CNotepadModel_Reserved(void)
	?CNotepadViewerDialog_Reserved@CNotepadViewerDialog@@AAEXXZ @ 15 NONAME ; private: void __thiscall CNotepadViewerDialog::CNotepadViewerDialog_Reserved(void)
	?Close@CNotepadModel@@QAEXXZ @ 16 NONAME ; public: void __thiscall CNotepadModel::Close(void)
	?CreateListDialogL@CNotepadApi@@QAEXH@Z @ 17 NONAME ; public: void __thiscall CNotepadApi::CreateListDialogL(int)
	?CreateModelL@CNotepadApi@@QAEXH@Z @ 18 NONAME ; public: void __thiscall CNotepadApi::CreateModelL(int)
	?CreateViewerDialogL@CNotepadApi@@QAEXABVTDesC16@@PBV2@HHI@Z @ 19 NONAME ; public: void __thiscall CNotepadApi::CreateViewerDialogL(class TDesC16 const &,class TDesC16 const *,int,int,unsigned int)
	?CreateViewerDialogL@CNotepadApi@@QAEXH@Z @ 20 NONAME ; public: void __thiscall CNotepadApi::CreateViewerDialogL(int)
	?Dialog@CNotepadApi@@QAEPAVCEikDialog@@XZ @ 21 NONAME ; public: class CEikDialog * __thiscall CNotepadApi::Dialog(void)
	?EditByKeyL@CNotepadListDialog@@QAEXH@Z @ 22 NONAME ; public: void __thiscall CNotepadListDialog::EditByKeyL(int)
	?ExecFileViewerL@CNotepadApi@@SAHABVTDesC16@@PBV2@HHI@Z @ 23 NONAME ; public: static int __cdecl CNotepadApi::ExecFileViewerL(class TDesC16 const &,class TDesC16 const *,int,int,unsigned int)
	?ExecTemplatesL@CNotepadApi@@SAHXZ @ 24 NONAME ; public: static int __cdecl CNotepadApi::ExecTemplatesL(void)
	?ExecuteLD@CNotepadDialogBase@@QAEHXZ @ 25 NONAME ; public: int __thiscall CNotepadDialogBase::ExecuteLD(void)
	?ExecuteLD@CNotepadEditorDialog@@QAEHXZ @ 26 NONAME ; public: int __thiscall CNotepadEditorDialog::ExecuteLD(void)
	?ExistsMemoL@CNotepadApi@@SAHH@Z @ 27 NONAME ; public: static int __cdecl CNotepadApi::ExistsMemoL(int)
	?FetchMemoL@CNotepadApi@@SAPAVHBufC16@@PBVTDesC16@@@Z @ 28 NONAME ; public: static class HBufC16 * __cdecl CNotepadApi::FetchMemoL(class TDesC16 const *)
	?FetchTemplateL@CNotepadApi@@SAPAVHBufC16@@PBVTDesC16@@@Z @ 29 NONAME ; public: static class HBufC16 * __cdecl CNotepadApi::FetchTemplateL(class TDesC16 const *)
	?IsOpen@CNotepadModel@@QAEHXZ @ 30 NONAME ; public: int __thiscall CNotepadModel::IsOpen(void)
	?LoadFileL@CNotepadViewerDialog@@QAEXXZ @ 31 NONAME ; public: void __thiscall CNotepadViewerDialog::LoadFileL(void)
	?MdcaCount@CNotepadModel@@UBEHXZ @ 32 NONAME ; public: virtual int __thiscall CNotepadModel::MdcaCount(void)const 
	?MdcaPoint@CNotepadModel@@UBE?AVTPtrC16@@H@Z @ 33 NONAME ; public: virtual class TPtrC16  __thiscall CNotepadModel::MdcaPoint(int)const 
	?Model@CNotepadApi@@QAEPAVCNotepadModel@@XZ @ 34 NONAME ; public: class CNotepadModel * __thiscall CNotepadApi::Model(void)
	?NewL@CNotepadApi@@SAPAV1@XZ @ 35 NONAME ; public: static class CNotepadApi * __cdecl CNotepadApi::NewL(void)
	?NewL@CNotepadEditorDialog@@SAPAV1@HPAVCNotepadModel@@PAVCNotepadListDialog@@PAVCSendAppUi@@@Z @ 36 NONAME ; public: static class CNotepadEditorDialog * __cdecl CNotepadEditorDialog::NewL(int,class CNotepadModel *,class CNotepadListDialog *,class CSendAppUi *)
	?NewL@CNotepadListDialog@@SAPAV1@HPAPAVCEikDialog@@@Z @ 37 NONAME ; public: static class CNotepadListDialog * __cdecl CNotepadListDialog::NewL(int,class CEikDialog * *)
	?NewL@CNotepadModel@@SAPAV1@AAVRFs@@H@Z @ 38 NONAME ; public: static class CNotepadModel * __cdecl CNotepadModel::NewL(class RFs &,int)
	?NewL@CNotepadViewerDialog@@SAPAV1@HPAPAVCEikDialog@@@Z @ 39 NONAME ; public: static class CNotepadViewerDialog * __cdecl CNotepadViewerDialog::NewL(int,class CEikDialog * *)
	?NewLC@CNotepadApi@@SAPAV1@XZ @ 40 NONAME ; public: static class CNotepadApi * __cdecl CNotepadApi::NewLC(void)
	?NumberOfTemplates@CNotepadApi@@SAHXZ @ 41 NONAME ; public: static int __cdecl CNotepadApi::NumberOfTemplates(void)
	?OpenFileL@CNotepadViewerDialog@@QAEXABVTDesC16@@PBV2@HI@Z @ 42 NONAME ; public: void __thiscall CNotepadViewerDialog::OpenFileL(class TDesC16 const &,class TDesC16 const *,int,unsigned int)
	?OpenL@CNotepadModel@@QAEXXZ @ 43 NONAME ; public: void __thiscall CNotepadModel::OpenL(void)
	?ProbeMemoL@CNotepadApi@@QAEHH@Z @ 44 NONAME ; public: int __thiscall CNotepadApi::ProbeMemoL(int)
	?SaveFileAsMemoL@CNotepadApi@@SAXABVTDesC16@@@Z @ 45 NONAME ; public: static void __cdecl CNotepadApi::SaveFileAsMemoL(class TDesC16 const &)
	?SaveL@CNotepadListDialog@@QAEXXZ @ 46 NONAME ; public: void __thiscall CNotepadListDialog::SaveL(void)
	?SeekKey@CNotepadModel@@QAEHH@Z @ 47 NONAME ; public: int __thiscall CNotepadModel::SeekKey(int)
	?SetFileL@CNotepadViewerDialog@@QAEXABVTDesC16@@PBV2@HI@Z @ 48 NONAME ; public: void __thiscall CNotepadViewerDialog::SetFileL(class TDesC16 const &,class TDesC16 const *,int,unsigned int)
	??1CNotepadExternalTextDialog@@UAE@XZ @ 49 NONAME ; public: virtual __thiscall CNotepadExternalTextDialog::~CNotepadExternalTextDialog(void)
	?CreateTextEditorDialogL@CNotepadApi@@AAEXPAPAVHBufC16@@AAHABVTDesC16@@22@Z @ 50 NONAME ; private: void __thiscall CNotepadApi::CreateTextEditorDialogL(class HBufC16 * *,int &,class TDesC16 const &,class TDesC16 const &,class TDesC16 const &)
	?CreateTextViewerDialogL@CNotepadApi@@AAEXPAPAVHBufC16@@AAHHABVTDesC16@@22@Z @ 51 NONAME ; private: void __thiscall CNotepadApi::CreateTextViewerDialogL(class HBufC16 * *,int &,int,class TDesC16 const &,class TDesC16 const &,class TDesC16 const &)
	?ExecReadOnlyTextViewerL@CNotepadApi@@SAHABVTDesC16@@00@Z @ 52 NONAME ; public: static int __cdecl CNotepadApi::ExecReadOnlyTextViewerL(class TDesC16 const &,class TDesC16 const &,class TDesC16 const &)
	?ExecTextEditorL@CNotepadApi@@SAPAVHBufC16@@AAHABVTDesC16@@11@Z @ 53 NONAME ; public: static class HBufC16 * __cdecl CNotepadApi::ExecTextEditorL(int &,class TDesC16 const &,class TDesC16 const &,class TDesC16 const &)
	?ExecTextViewerL@CNotepadApi@@SAPAVHBufC16@@AAHABVTDesC16@@11@Z @ 54 NONAME ; public: static class HBufC16 * __cdecl CNotepadApi::ExecTextViewerL(int &,class TDesC16 const &,class TDesC16 const &,class TDesC16 const &)
	?NewL@CNotepadExternalTextDialog@@SAPAV1@PAPAVHBufC16@@AAHABVTDesC16@@22PAPAVCEikDialog@@@Z @ 55 NONAME ; public: static class CNotepadExternalTextDialog * __cdecl CNotepadExternalTextDialog::NewL(class HBufC16 * *,int &,class TDesC16 const &,class TDesC16 const &,class TDesC16 const &,class CEikDialog * *)
	?SaveFileAsMemoL@CNotepadApi@@SAXABVTDesC16@@I@Z @ 56 NONAME ; public: static void __cdecl CNotepadApi::SaveFileAsMemoL(class TDesC16 const &,unsigned int)

