EXPORTS
	_ZN12CSearchField10ConstructLER11RReadStream @ 1 NONAME
	_ZN12CSearchField10SetFieldIdE14TSearchFieldId @ 2 NONAME
	_ZN12CSearchField4NewLER11RReadStream @ 3 NONAME
	_ZN12CSearchField4NewLEv @ 4 NONAME
	_ZN12CSearchField8SetDataLER6TDesC820TSearchFieldDataType @ 5 NONAME
	_ZN12CSearchQuery12SetConditionEP16CSearchCondition @ 6 NONAME
	_ZN12CSearchQuery16SetTargetContentERK6RArrayI4TUidE @ 7 NONAME
	_ZN12CSearchQuery16SetTargetServiceE4TUid @ 8 NONAME
	_ZN12CSearchQuery4NewLER11RReadStream @ 9 NONAME
	_ZN12CSearchQuery4NewLEv @ 10 NONAME
	_ZN13CSearchResult11SetSnippetLERK6TDesC8 @ 11 NONAME
	_ZN13CSearchResult17SetSnippetFormatLERK6TDesC8 @ 12 NONAME
	_ZN13CSearchResult4NewLEP18CSearchLightResult @ 13 NONAME
	_ZN13CSearchResult4NewLER11RReadStream @ 14 NONAME
	_ZN13CSearchResult4NewLERKS_ @ 15 NONAME
	_ZN13CSearchResult9SetTitleLERK7TDesC16 @ 16 NONAME
	_ZN14CSearchContent11SetCaptionLERK7TDesC16 @ 17 NONAME
	_ZN14CSearchContent11SetIconInfoEP15CSearchIconInfo @ 18 NONAME
	_ZN14CSearchContent11SetPluginIdE4TUid @ 19 NONAME
	_ZN14CSearchContent12SetContentIdE4TUid @ 20 NONAME
	_ZN14CSearchContent15SetSubContentIdEl @ 21 NONAME
	_ZN14CSearchContent16SetShortCaptionLERK7TDesC16 @ 22 NONAME
	_ZN14CSearchContent17SetSnippetFormatLERK6TDesC8 @ 23 NONAME
	_ZN14CSearchContent4NewLENS_18TSearchContentTypeE @ 24 NONAME
	_ZN14CSearchContent4NewLER11RReadStream @ 25 NONAME
	_ZN14CSearchContent9AddChildLEPS_ @ 26 NONAME
	_ZN15CSearchIconInfo12SetIconFileLERK7TDesC16 @ 27 NONAME
	_ZN15CSearchIconInfo12SetIconIndexEi @ 28 NONAME
	_ZN15CSearchIconInfo16SetIconMaskIndexEi @ 29 NONAME
	_ZN15CSearchIconInfo4NewLER11RReadStream @ 30 NONAME
	_ZN15CSearchIconInfo4NewLEv @ 31 NONAME
	_ZN15CSearchIconInfo5NewLCER11RReadStream @ 32 NONAME
	_ZN15CSearchIconInfo9SetSkinIdERK11TAknsItemID @ 33 NONAME
	_ZN16CSearchConditionD0Ev @ 34 NONAME
	_ZN16CSearchConditionD1Ev @ 35 NONAME
	_ZN16CSearchConditionD2Ev @ 36 NONAME
	_ZN17CSearchDocumentId16SetRepositoryIdLEl @ 37 NONAME
	_ZN17CSearchDocumentId4NewLER11RReadStream @ 38 NONAME
	_ZN17CSearchDocumentId4NewLERKS_ @ 39 NONAME
	_ZN17CSearchDocumentId4NewLEi4TUid @ 40 NONAME
	_ZN18CSearchLightResult12SetServiceIdE4TUid @ 41 NONAME
	_ZN18CSearchLightResult15SetSubContentIdEl @ 42 NONAME
	_ZN18CSearchLightResult17SetContentClassIdE4TUid @ 43 NONAME
	_ZN18CSearchLightResult18SetContentFolderIdE4TUid @ 44 NONAME
	_ZN18CSearchLightResult4NewLEP17CSearchDocumentId @ 45 NONAME
	_ZN18CSearchLightResult4NewLER11RReadStream @ 46 NONAME
	_ZN18CSearchLightResult4NewLERK17CSearchDocumentId @ 47 NONAME
	_ZN18CSearchLightResult4NewLERKS_ @ 48 NONAME
	_ZN18CSearchTextSnippet11SetSnippetLERK6TDesC8 @ 49 NONAME
	_ZN18CSearchTextSnippet23SetSnippetEndIncompleteEi @ 50 NONAME
	_ZN18CSearchTextSnippet25SetSnippetStartIncompleteEi @ 51 NONAME
	_ZN18CSearchTextSnippet4NewLEii @ 52 NONAME
	_ZN18CSearchTextSnippet4NewLEv @ 53 NONAME
	_ZN19CSearchTextSearcher14SetParametersLERK12MDesC16ArrayNS_23TSearchCriteriaOperatorEi @ 54 NONAME
	_ZN19CSearchTextSearcher14SetParametersLERK16CSearchCondition @ 55 NONAME
	_ZN19CSearchTextSearcher18SearchEmailAddressEi @ 56 NONAME
	_ZN19CSearchTextSearcher4NewLER27MSearchTextSearcherObserver @ 57 NONAME
	_ZN19CSearchTextSearcher5NewLCER27MSearchTextSearcherObserver @ 58 NONAME
	_ZN19CSearchTextSearcher7CleanupEv @ 59 NONAME
	_ZN19CSearchTextSearcher7SearchLERK6TDesC8 @ 60 NONAME
	_ZN19CSearchTextSearcher7SearchLERK7TDesC16 @ 61 NONAME
	_ZN21CSearchSnippetCreator18CreateTextSnippetLERK6TDesC8i @ 62 NONAME
	_ZN21CSearchSnippetCreator18CreateTextSnippetLERK7TDesC16i @ 63 NONAME
	_ZN21CSearchSnippetCreator4NewLEv @ 64 NONAME
	_ZN22CSearchSingleCondition4NewLEP12CSearchField @ 65 NONAME
	_ZN22CSearchSingleCondition4NewLER11RReadStream @ 66 NONAME
	_ZN23CSearchBooleanCondition13AddConditionLEP16CSearchConditionNS_14TBooleanClauseE @ 67 NONAME
	_ZN23CSearchBooleanCondition4NewLER11RReadStream @ 68 NONAME
	_ZN23CSearchBooleanCondition4NewLEv @ 69 NONAME
	_ZNK12CSearchField12ExternalizeLER12RWriteStream @ 70 NONAME
	_ZNK12CSearchField7FieldIdEv @ 71 NONAME
	_ZNK12CSearchField7GetDataER5TTime @ 72 NONAME
	_ZNK12CSearchField7GetDataER6TPtrC8 @ 73 NONAME
	_ZNK12CSearchField7GetDataERd @ 74 NONAME
	_ZNK12CSearchField7GetDataERi @ 75 NONAME
	_ZNK12CSearchField8DataTypeEv @ 76 NONAME
	_ZNK12CSearchQuery12ExternalizeLER12RWriteStream @ 77 NONAME
	_ZNK12CSearchQuery13TargetServiceEv @ 78 NONAME
	_ZNK12CSearchQuery16GetTargetContentER6RArrayI4TUidE @ 79 NONAME
	_ZNK12CSearchQuery9ConditionEv @ 80 NONAME
	_ZNK13CSearchResult12ExternalizeLER12RWriteStream @ 81 NONAME
	_ZNK13CSearchResult13SnippetFormatEv @ 82 NONAME
	_ZNK13CSearchResult5TitleEv @ 83 NONAME
	_ZNK13CSearchResult6ResultEv @ 84 NONAME
	_ZNK13CSearchResult7SnippetEv @ 85 NONAME
	_ZNK14CSearchContent10FindChildLE4TUid @ 86 NONAME
	_ZNK14CSearchContent11ContentTypeEv @ 87 NONAME
	_ZNK14CSearchContent12ExternalizeLER12RWriteStream @ 88 NONAME
	_ZNK14CSearchContent12GetChildrenLER13RPointerArrayIKS_E @ 89 NONAME
	_ZNK14CSearchContent12SubContentIdEv @ 90 NONAME
	_ZNK14CSearchContent13SnippetFormatEv @ 91 NONAME
	_ZNK14CSearchContent15FindSubContentLERK18CSearchLightResult @ 92 NONAME
	_ZNK14CSearchContent7CaptionEv @ 93 NONAME
	_ZNK14CSearchContent8IconInfoEv @ 94 NONAME
	_ZNK14CSearchContent8PluginIdEv @ 95 NONAME
	_ZNK14CSearchContent9ContentIdEv @ 96 NONAME
	_ZNK15CSearchIconInfo11GetIconFileEv @ 97 NONAME
	_ZNK15CSearchIconInfo11HasIconMaskEv @ 98 NONAME
	_ZNK15CSearchIconInfo12ExternalizeLER12RWriteStream @ 99 NONAME
	_ZNK15CSearchIconInfo12GetIconIndexEv @ 100 NONAME
	_ZNK15CSearchIconInfo15IsSkinnableIconEv @ 101 NONAME
	_ZNK15CSearchIconInfo16GetIconMaskIndexEv @ 102 NONAME
	_ZNK15CSearchIconInfo6SkinIdEv @ 103 NONAME
	_ZNK16CSearchCondition12ExternalizeLER12RWriteStream @ 104 NONAME
	_ZNK16CSearchCondition4TypeEv @ 105 NONAME
	_ZNK17CSearchDocumentId10DocumentIdEv @ 106 NONAME
	_ZNK17CSearchDocumentId12ExternalizeLER12RWriteStream @ 107 NONAME
	_ZNK17CSearchDocumentId12RepositoryIdEv @ 108 NONAME
	_ZNK17CSearchDocumentId8PluginIdEv @ 109 NONAME
	_ZNK18CSearchLightResult10DocumentIdEv @ 110 NONAME
	_ZNK18CSearchLightResult12ExternalizeLER12RWriteStream @ 111 NONAME
	_ZNK18CSearchLightResult12SubContentIdEv @ 112 NONAME
	_ZNK18CSearchLightResult14ContentClassIdEv @ 113 NONAME
	_ZNK18CSearchLightResult15ContentFolderIdEv @ 114 NONAME
	_ZNK18CSearchLightResult9ServiceIdEv @ 115 NONAME
	_ZNK18CSearchTextSnippet20SnippetEndIncompleteEv @ 116 NONAME
	_ZNK18CSearchTextSnippet22SnippetStartIncompleteEv @ 117 NONAME
	_ZNK18CSearchTextSnippet5PackLEv @ 118 NONAME
	_ZNK18CSearchTextSnippet7SnippetEv @ 119 NONAME
	_ZNK22CSearchSingleCondition12ExternalizeLER12RWriteStream @ 120 NONAME
	_ZNK22CSearchSingleCondition4TermEv @ 121 NONAME
	_ZNK23CSearchBooleanCondition12ExternalizeLER12RWriteStream @ 122 NONAME
	_ZNK23CSearchBooleanCondition13GetConditionsER13RPointerArrayI16CSearchConditionER6RArrayINS_14TBooleanClauseEE @ 123 NONAME
	_ZTI16CSearchCondition @ 124 NONAME ; #<TI>#
	_ZTV16CSearchCondition @ 125 NONAME ; #<VT>#
	_ZN19CSearchTextSearcher13SearchKeywordEv @ 126 NONAME

