EXPORTS
	?EntryViewL@CCalenGlobalData@@QAEPAVCCalEntryView@@E@Z @ 1 NONAME ; class CCalEntryView * CCalenGlobalData::EntryViewL(unsigned char)
	?InstanceViewL@CCalenGlobalData@@QAEPAVCCalInstanceView@@XZ @ 2 NONAME ; class CCalInstanceView * CCalenGlobalData::InstanceViewL(void)
	?InitializeGlobalDataL@CCalenGlobalData@@QAEXXZ @ 3 NONAME ; void CCalenGlobalData::InitializeGlobalDataL(void)
	??1CCalenSend@@UAE@XZ @ 4 NONAME ; CCalenSend::~CCalenSend(void)
	?DisplaySendMenuItemL@CCalenSend@@QAEXAAVCEikMenuPane@@H@Z @ 5 NONAME ; void CCalenSend::DisplaySendMenuItemL(class CEikMenuPane &, int)
	?ResetKeyEventQueue@CCalenGlobalData@@QAEXXZ @ 6 NONAME ; void CCalenGlobalData::ResetKeyEventQueue(void)
	?GetQueuedKeyEvent@CCalenGlobalData@@QAEHAAUTKeyEvent@@AAW4TEventCode@@@Z @ 7 NONAME ; int CCalenGlobalData::GetQueuedKeyEvent(struct TKeyEvent &, enum TEventCode &)
	?CalSessionL@CCalenGlobalData@@QAEAAVCCalSession@@ABVTDesC16@@@Z @ 8 NONAME ; class CCalSession & CCalenGlobalData::CalSessionL(class TDesC16 const &)
	?MRMailboxUtilsL@CCalenGlobalData@@QAEAAVCMRMailboxUtils@@XZ @ 9 NONAME ; class CMRMailboxUtils & CCalenGlobalData::MRMailboxUtilsL(void)
	?CalenSendL@CCalenGlobalData@@QAEAAVCCalenSend@@XZ @ 10 NONAME ; class CCalenSend & CCalenGlobalData::CalenSendL(void)
	?ConstructFileMappingL@CCalenGlobalData@@AAEHXZ @ 11 NONAME ; int CCalenGlobalData::ConstructFileMappingL(void)
	?NewL@CCalenGlobalData@@SAPAV1@AAVMCalProgressCallBack@@PAVMCalenContextChangeObserver@@@Z @ 12 NONAME ; class CCalenGlobalData * CCalenGlobalData::NewL(class MCalProgressCallBack &, class MCalenContextChangeObserver *)
	?InstanceL@CCalenGlobalData@@SAPAV1@XZ @ 13 NONAME ; class CCalenGlobalData * CCalenGlobalData::InstanceL(void)
	?NewL@CCalenSend@@SAPAV1@HAAVCCalSession@@@Z @ 14 NONAME ; class CCalenSend * CCalenSend::NewL(int, class CCalSession &)
	?RemoveCalendarL@CCalenGlobalData@@QAEXABVTDesC16@@@Z @ 15 NONAME ; void CCalenGlobalData::RemoveCalendarL(class TDesC16 const &)
	?EntryViewExists@CCalenGlobalData@@QAEHXZ @ 16 NONAME ; int CCalenGlobalData::EntryViewExists(void)
	?QueueKeyEvent@CCalenGlobalData@@QAEHABUTKeyEvent@@W4TEventCode@@@Z @ 17 NONAME ; int CCalenGlobalData::QueueKeyEvent(struct TKeyEvent const &, enum TEventCode)
	?InstanceViewL@CCalenGlobalData@@QAEPAVCCalInstanceView@@ABV?$RArray@H@@@Z @ 18 NONAME ; class CCalInstanceView * CCalenGlobalData::InstanceViewL(class RArray<int> const &)
	?AttemptToRetrieveDefaultMailboxL@CCalenGlobalData@@QAEHAAUTMailboxInfo@CMRMailboxUtils@@@Z @ 19 NONAME ; int CCalenGlobalData::AttemptToRetrieveDefaultMailboxL(struct CMRMailboxUtils::TMailboxInfo &)
	?CalSessionL@CCalenGlobalData@@QAEAAVCCalSession@@XZ @ 20 NONAME ; class CCalSession & CCalenGlobalData::CalSessionL(void)
	?GetAllCalendarInfoL@CCalenGlobalData@@QAEXAAV?$RPointerArray@VCCalCalendarInfo@@@@@Z @ 21 NONAME ; void CCalenGlobalData::GetAllCalendarInfoL(class RPointerArray<class CCalCalendarInfo> &)
	?InstanceL@CCalenGlobalData@@SAPAV1@AAVCCalSession@@@Z @ 22 NONAME ; class CCalenGlobalData * CCalenGlobalData::InstanceL(class CCalSession &)
	?InterimUtilsL@CCalenGlobalData@@QAEAAVCCalenInterimUtils2@@XZ @ 23 NONAME ; class CCalenInterimUtils2 & CCalenGlobalData::InterimUtilsL(void)
	?MeetingRequestUtilsL@CCalenGlobalData@@QAEAAVCMRUtils@@XZ @ 24 NONAME ; class CMRUtils & CCalenGlobalData::MeetingRequestUtilsL(void)
	?DisplaySendCascadeMenuL@CCalenSend@@QAEXXZ @ 25 NONAME ; void CCalenSend::DisplaySendCascadeMenuL(void)
	?SendAsVCalendarL@CCalenSend@@QAEXHAAVCCalEntry@@@Z @ 26 NONAME ; void CCalenSend::SendAsVCalendarL(int, class CCalEntry &)
	?GetCalFileNameForCollectionId@CCalenGlobalData@@QAEABVTDesC16@@E@Z @ 27 NONAME ; class TDesC16 const & CCalenGlobalData::GetCalFileNameForCollectionId(unsigned char)
	?EntryViewL@CCalenGlobalData@@QAEPAVCCalEntryView@@XZ @ 28 NONAME ; class CCalEntryView * CCalenGlobalData::EntryViewL(void)
	?Instance@CCalenGlobalData@@SAPAV1@XZ @ 29 NONAME ; class CCalenGlobalData * CCalenGlobalData::Instance(void)
	?UpdateCalendarL@CCalenGlobalData@@QAEXPAVCCalCalendarInfo@@@Z @ 30 NONAME ; void CCalenGlobalData::UpdateCalendarL(class CCalCalendarInfo *)
	?Release@CCalenGlobalData@@QAEXXZ @ 31 NONAME ; void CCalenGlobalData::Release(void)
	?AddCalendarL@CCalenGlobalData@@QAEXPAVCCalCalendarInfo@@@Z @ 32 NONAME ; void CCalenGlobalData::AddCalendarL(class CCalCalendarInfo *)
	?Context@CCalenGlobalData@@QAEAAVMCalenContext@@XZ @ 33 NONAME ; class MCalenContext & CCalenGlobalData::Context(void)
	?CanSendL@CCalenSend@@QAEHH@Z @ 34 NONAME ; int CCalenSend::CanSendL(int)
	?RemoveDeadCalendarsL@CCalenGlobalData@@QAEXXZ @ 35 NONAME ; void CCalenGlobalData::RemoveDeadCalendarsL(void)

