EXPORTS
	?SetDefaultView@CCalenSetting@@QAEXVTUid@@@Z @ 1 NONAME ; void CCalenSetting::SetDefaultView(class TUid)
	?InstanceL@CCalenSetting@@SAPAV1@XZ @ 2 NONAME ; class CCalenSetting * CCalenSetting::InstanceL(void)
	?SetPluginStatusL@CCalenSetting@@QAEXVTUid@@H@Z @ 3 NONAME ; void CCalenSetting::SetPluginStatusL(class TUid, int)
	?PluginAvailability@CCalenSetting@@QAEAAV?$RArray@UTCalenPluginAvailability@CCalenCustomisationManager@@@@XZ @ 4 NONAME ; class RArray<struct CCalenCustomisationManager::TCalenPluginAvailability> & CCalenSetting::PluginAvailability(void)
	?UpdatePluginListL@CCalenSetting@@QAEXAAVCCalenCustomisationManager@@@Z @ 5 NONAME ; void CCalenSetting::UpdatePluginListL(class CCalenCustomisationManager &)
	?SetWeekFormat@CCalenSetting@@QAEXW4TDay@@@Z @ 6 NONAME ; void CCalenSetting::SetWeekFormat(enum TDay)
	?DefaultView@CCalenSetting@@QBE?AVTUid@@XZ @ 7 NONAME ; class TUid CCalenSetting::DefaultView(void) const
	?HandleListBoxSelectionL@CCalenSettingsUiContainer@@QAEXHAAH@Z @ 8 NONAME ; void CCalenSettingsUiContainer::HandleListBoxSelectionL(int, int &)
	?ConstructListBoxL@CCalenSettingsUiContainer@@QAEXXZ @ 9 NONAME ; void CCalenSettingsUiContainer::ConstructListBoxL(void)
	?NewL@CCalenSettingsUiContainer@@SAPAV1@PAVCCoeControl@@AAVCAknSettingStyleListBox@@AAVCCalenGlobalData@@AAVCCalenCustomisationManager@@@Z @ 10 NONAME ; class CCalenSettingsUiContainer * CCalenSettingsUiContainer::NewL(class CCoeControl *, class CAknSettingStyleListBox &, class CCalenGlobalData &, class CCalenCustomisationManager &)
	?SetWeekTitle@CCalenSetting@@QAEXW4TCalenWeekTitle@@@Z @ 11 NONAME ; void CCalenSetting::SetWeekTitle(enum TCalenWeekTitle)
	?WeekFormat@CCalenSetting@@QBE?AW4TDay@@XZ @ 12 NONAME ; enum TDay CCalenSetting::WeekFormat(void) const
	?SaveL@CCalenSetting@@QBEXXZ @ 13 NONAME ; void CCalenSetting::SaveL(void) const
	?Toolbar@CCalenSetting@@QAEHXZ @ 14 NONAME ; int CCalenSetting::Toolbar(void)
	?CurrentFeatureId@CCalenSettingsUiContainer@@QBEHXZ @ 15 NONAME ; int CCalenSettingsUiContainer::CurrentFeatureId(void) const
	?UpdateListBoxL@CCalenSettingsUiContainer@@QAEXXZ @ 16 NONAME ; void CCalenSettingsUiContainer::UpdateListBoxL(void)
	?Release@CCalenSetting@@QAEXXZ @ 17 NONAME ; void CCalenSetting::Release(void)
	?LoadL@CCalenSetting@@QAEXXZ @ 18 NONAME ; void CCalenSetting::LoadL(void)
	?SetToolbar@CCalenSetting@@QAEXH@Z @ 19 NONAME ; void CCalenSetting::SetToolbar(int)
	?SetSnoozeTime@CCalenSetting@@QAEXH@Z @ 20 NONAME ; void CCalenSetting::SetSnoozeTime(int)
	?SnoozeTime@CCalenSetting@@QBEHXZ @ 21 NONAME ; int CCalenSetting::SnoozeTime(void) const
	?WeekTitle@CCalenSetting@@QBE?AW4TCalenWeekTitle@@XZ @ 22 NONAME ; enum TCalenWeekTitle CCalenSetting::WeekTitle(void) const

