EXPORTS
	??1CSrchUiResFolder@@UAE@XZ @ 1 NONAME ; CSrchUiResFolder::~CSrchUiResFolder(void)
	?AddChildFileL@CSrchUiResFolder@@QAEXPAVCSearchLightResult@@@Z @ 2 NONAME ; void CSrchUiResFolder::AddChildFileL(class CSearchLightResult *)
	?AddChildL@CSrchUiResFolder@@QAEXPAV1@@Z @ 3 NONAME ; void CSrchUiResFolder::AddChildL(class CSrchUiResFolder *)
	?ContentClassType@CSrchUiResFolder@@QBEABVTUid@@XZ @ 4 NONAME ; class TUid const & CSrchUiResFolder::ContentClassType(void) const
	?ContentFolderType@CSrchUiResFolder@@QBEABVTUid@@XZ @ 5 NONAME ; class TUid const & CSrchUiResFolder::ContentFolderType(void) const
	?GetAllHeavyResultsCount@CSrchUiResFolder@@QBEHXZ @ 6 NONAME ; int CSrchUiResFolder::GetAllHeavyResultsCount(void) const
	?GetAllResultsCount@CSrchUiResFolder@@UBEHXZ @ 7 NONAME ; int CSrchUiResFolder::GetAllResultsCount(void) const
	?GetHeavyResult@CSrchUiResFolder@@QAEPAVCSearchResult@@H@Z @ 8 NONAME ; class CSearchResult * CSrchUiResFolder::GetHeavyResult(int)
	?GetHeavyResultsCount@CSrchUiResFolder@@QAEHXZ @ 9 NONAME ; int CSrchUiResFolder::GetHeavyResultsCount(void)
	?GetResult@CSrchUiResFolder@@UAEPAVCSearchLightResult@@H@Z @ 10 NONAME ; class CSearchLightResult * CSrchUiResFolder::GetResult(int)
	?HeavyResults@CSrchUiResFolder@@UAEAAV?$RPointerArray@VCSearchResult@@@@XZ @ 11 NONAME ; class RPointerArray<class CSearchResult> & CSrchUiResFolder::HeavyResults(void)
	?IconInfo@CSrchUiResFolder@@QBEPBVCSearchIconInfo@@XZ @ 12 NONAME ; class CSearchIconInfo const * CSrchUiResFolder::IconInfo(void) const
	?NewL@CSrchUiResFolder@@SAPAV1@PAV1@@Z @ 13 NONAME ; class CSrchUiResFolder * CSrchUiResFolder::NewL(class CSrchUiResFolder *)
	?NewL@CSrchUiResFolder@@SAPAV1@XZ @ 14 NONAME ; class CSrchUiResFolder * CSrchUiResFolder::NewL(void)
	?NewLC@CSrchUiResFolder@@SAPAV1@PAV1@@Z @ 15 NONAME ; class CSrchUiResFolder * CSrchUiResFolder::NewLC(class CSrchUiResFolder *)
	?NewLC@CSrchUiResFolder@@SAPAV1@XZ @ 16 NONAME ; class CSrchUiResFolder * CSrchUiResFolder::NewLC(void)
	?ResetAllFolders@CSrchUiResFolder@@QAEXXZ @ 17 NONAME ; void CSrchUiResFolder::ResetAllFolders(void)
	?ResetAndDestroy@CSrchUiResFolder@@QAEXXZ @ 18 NONAME ; void CSrchUiResFolder::ResetAndDestroy(void)
	?Results@CSrchUiResFolder@@UAEAAV?$RPointerArray@VCSearchLightResult@@@@XZ @ 19 NONAME ; class RPointerArray<class CSearchLightResult> & CSrchUiResFolder::Results(void)
	?SetContentClassType@CSrchUiResFolder@@QAEXABVTUid@@@Z @ 20 NONAME ; void CSrchUiResFolder::SetContentClassType(class TUid const &)
	?SetContentFolderType@CSrchUiResFolder@@QAEXABVTUid@@@Z @ 21 NONAME ; void CSrchUiResFolder::SetContentFolderType(class TUid const &)
	?SetIconInfo@CSrchUiResFolder@@QAEXPBVCSearchIconInfo@@@Z @ 22 NONAME ; void CSrchUiResFolder::SetIconInfo(class CSearchIconInfo const *)
	?SubFolders@CSrchUiResFolder@@QAEXAAV?$RPointerArray@VCSrchUiResFolder@@@@@Z @ 23 NONAME ; void CSrchUiResFolder::SubFolders(class RPointerArray<class CSrchUiResFolder> &)

