EXPORTS
	?metaObject@CalenEditor@@UBEPBUQMetaObject@@XZ @ 1 NONAME ; struct QMetaObject const * CalenEditor::metaObject(void) const
	?edit@CalenEditor@@QAEXVAgendaEntry@@_N@Z @ 2 NONAME ; void CalenEditor::edit(class AgendaEntry, bool)
	?edit@CalenEditor@@QAEXABVQFile@@_N@Z @ 3 NONAME ; void CalenEditor::edit(class QFile const &, bool)
	??_ECalenEditor@@UAE@I@Z @ 4 NONAME ; CalenEditor::~CalenEditor(unsigned int)
	?calendarLaunchFailed@CalenEditor@@IAEXH@Z @ 5 NONAME ; void CalenEditor::calendarLaunchFailed(int)
	?tr@CalenEditor@@SA?AVQString@@PBD0@Z @ 6 NONAME ; class QString CalenEditor::tr(char const *, char const *)
	?getStaticMetaObject@CalenEditor@@SAABUQMetaObject@@XZ @ 7 NONAME ; struct QMetaObject const & CalenEditor::getStaticMetaObject(void)
	?trUtf8@CalenEditor@@SA?AVQString@@PBD0@Z @ 8 NONAME ; class QString CalenEditor::trUtf8(char const *, char const *)
	?tr@CalenEditor@@SA?AVQString@@PBD0H@Z @ 9 NONAME ; class QString CalenEditor::tr(char const *, char const *, int)
	?entrySaved@CalenEditor@@IAEXXZ @ 10 NONAME ; void CalenEditor::entrySaved(void)
	?qt_metacast@CalenEditor@@UAEPAXPBD@Z @ 11 NONAME ; void * CalenEditor::qt_metacast(char const *)
	?create@CalenEditor@@QAEXVQDateTime@@_NW4CreateType@1@@Z @ 12 NONAME ; void CalenEditor::create(class QDateTime, bool, enum CalenEditor::CreateType)
	??0CalenEditor@@QAE@PAVQObject@@@Z @ 13 NONAME ; CalenEditor::CalenEditor(class QObject *)
	?d_func@CalenEditor@@ABEPBVCalenEditorPrivate@@XZ @ 14 NONAME ; class CalenEditorPrivate const * CalenEditor::d_func(void) const
	?trUtf8@CalenEditor@@SA?AVQString@@PBD0H@Z @ 15 NONAME ; class QString CalenEditor::trUtf8(char const *, char const *, int)
	?qt_metacall@CalenEditor@@UAEHW4Call@QMetaObject@@HPAPAX@Z @ 16 NONAME ; int CalenEditor::qt_metacall(enum QMetaObject::Call, int, void * *)
	??0CalenEditor@@QAE@PAVAgendaUtil@@PAVQObject@@@Z @ 17 NONAME ; CalenEditor::CalenEditor(class AgendaUtil *, class QObject *)
	??1CalenEditor@@UAE@XZ @ 18 NONAME ; CalenEditor::~CalenEditor(void)
	?staticMetaObject@CalenEditor@@2UQMetaObject@@B @ 19 NONAME ; struct QMetaObject const CalenEditor::staticMetaObject
	?edit@CalenEditor@@QAEXK_N@Z @ 20 NONAME ; void CalenEditor::edit(unsigned long, bool)
	?dialogClosed@CalenEditor@@IAEXXZ @ 21 NONAME ; void CalenEditor::dialogClosed(void)
	?d_func@CalenEditor@@AAEPAVCalenEditorPrivate@@XZ @ 22 NONAME ; class CalenEditorPrivate * CalenEditor::d_func(void)
	?create@CalenEditor@@QAEXVAgendaEntry@@_NW4CreateType@1@@Z @ 23 NONAME ; void CalenEditor::create(class AgendaEntry, bool, enum CalenEditor::CreateType)

