EXPORTS
	??0CClkUiIdleObserver@@QAE@XZ @ 1 NONAME ; CClkUiIdleObserver::CClkUiIdleObserver(void)
	??0CClkUiMdlListenerBase@@IAE@AAVCClkUiModelBase@@H@Z @ 2 NONAME ; CClkUiMdlListenerBase::CClkUiMdlListenerBase(class CClkUiModelBase &, int)
	??0CClkUiModelBase@@QAE@XZ @ 3 NONAME ; CClkUiModelBase::CClkUiModelBase(void)
	??1CClkUiAlarmModel@@UAE@XZ @ 4 NONAME ; CClkUiAlarmModel::~CClkUiAlarmModel(void)
	??1CClkUiClkSrvModel@@UAE@XZ @ 5 NONAME ; CClkUiClkSrvModel::~CClkUiClkSrvModel(void)
	??1CClkUiIdleObserver@@UAE@XZ @ 6 NONAME ; CClkUiIdleObserver::~CClkUiIdleObserver(void)
	??1CClkUiModelBase@@UAE@XZ @ 7 NONAME ; CClkUiModelBase::~CClkUiModelBase(void)
	?ActivateAllProtocols@CClkUiClkSrvModel@@QAEHXZ @ 8 NONAME ; int CClkUiClkSrvModel::ActivateAllProtocols(void)
	?ActivateProtocol@CClkUiClkSrvModel@@QAEHH@Z @ 9 NONAME ; int CClkUiClkSrvModel::ActivateProtocol(int)
	?AlarmId@CClkUiAlarmModel@@QAEABHXZ @ 10 NONAME ; int const & CClkUiAlarmModel::AlarmId(void)
	?ClockAlarmEnable@CClkUiAlarmModel@@QAEHHW4TAlarmStatus@@@Z @ 11 NONAME ; int CClkUiAlarmModel::ClockAlarmEnable(int, enum TAlarmStatus)
	?ClockAlarmInfo@CClkUiAlarmModel@@QBEHHAAUSClkAlarmInfo@@@Z @ 12 NONAME ; int CClkUiAlarmModel::ClockAlarmInfo(int, struct SClkAlarmInfo &) const
	?ClockAlarmSet@CClkUiAlarmModel@@QAEHABUSClkAlarmInfo@@@Z @ 13 NONAME ; int CClkUiAlarmModel::ClockAlarmSet(struct SClkAlarmInfo const &)
	?ClockAlarmStatus@CClkUiAlarmModel@@QBE?AW4TAlarmStatus@@H@Z @ 14 NONAME ; enum TAlarmStatus CClkUiAlarmModel::ClockAlarmStatus(int) const
	?ClockAlarmType@CClkUiAlarmModel@@QBEHAAVTUid@@H@Z @ 15 NONAME ; int CClkUiAlarmModel::ClockAlarmType(class TUid &, int) const
	?ConstructL@CClkUiIdleObserver@@QAEXPAVMClkModelObserver@@H@Z @ 16 NONAME ; void CClkUiIdleObserver::ConstructL(class MClkModelObserver *, int)
	?DeActivateAllProtocols@CClkUiClkSrvModel@@QAEHXZ @ 17 NONAME ; int CClkUiClkSrvModel::DeActivateAllProtocols(void)
	?DeActivateProtocol@CClkUiClkSrvModel@@QAEHH@Z @ 18 NONAME ; int CClkUiClkSrvModel::DeActivateProtocol(int)
	?DeleteClockAlarm@CClkUiAlarmModel@@QAEHH@Z @ 19 NONAME ; int CClkUiAlarmModel::DeleteClockAlarm(int)
	?DoIdleCancel@CClkUiIdleObserver@@MAEXXZ @ 20 NONAME ; void CClkUiIdleObserver::DoIdleCancel(void)
	?DoIdleNotifyL@CClkUiIdleObserver@@MAEXXZ @ 21 NONAME ; void CClkUiIdleObserver::DoIdleNotifyL(void)
	?GetAlarmQueuedOrSnoozedId@CClkUiAlarmModel@@QAEHAAHH@Z @ 22 NONAME ; int CClkUiAlarmModel::GetAlarmQueuedOrSnoozedId(int &, int)
	?GetClkAlarmIds@CClkUiAlarmModel@@QAEXAAV?$RArray@H@@@Z @ 23 NONAME ; void CClkUiAlarmModel::GetClkAlarmIds(class RArray<int> &)
	?GetCurrentMcc@CClkUiClkSrvModel@@QAEHAAH@Z @ 24 NONAME ; int CClkUiClkSrvModel::GetCurrentMcc(int &)
	?GetCurrentTimeZondId@CClkUiClkSrvModel@@QAEHAAH@Z @ 25 NONAME ; int CClkUiClkSrvModel::GetCurrentTimeZondId(int &)
	?GetProtocolInfo@CClkUiClkSrvModel@@QAEHHAAUtimeAttributes@@@Z @ 26 NONAME ; int CClkUiClkSrvModel::GetProtocolInfo(int, struct timeAttributes &)
	?HandleUpdateL@CClkUiIdleObserver@@UAEXH@Z @ 27 NONAME ; void CClkUiIdleObserver::HandleUpdateL(int)
	?HandleUpdateL@CClkUiMdlIntermediateObserver@@UAEXH@Z @ 28 NONAME ; void CClkUiMdlIntermediateObserver::HandleUpdateL(int)
	?IsProtocolActive@CClkUiClkSrvModel@@QAEHH@Z @ 29 NONAME ; int CClkUiClkSrvModel::IsProtocolActive(int)
	?NewL@CClkUiAlarmIdleObserver@@SAPAV1@PAVMClkModelObserver@@H@Z @ 30 NONAME ; class CClkUiAlarmIdleObserver * CClkUiAlarmIdleObserver::NewL(class MClkModelObserver *, int)
	?NewL@CClkUiAlarmModel@@SAPAV1@PAVMClkModelObserver@@H@Z @ 31 NONAME ; class CClkUiAlarmModel * CClkUiAlarmModel::NewL(class MClkModelObserver *, int)
	?NewL@CClkUiClkSrvIdleObserver@@SAPAV1@PAVMClkModelObserver@@H@Z @ 32 NONAME ; class CClkUiClkSrvIdleObserver * CClkUiClkSrvIdleObserver::NewL(class MClkModelObserver *, int)
	?NewL@CClkUiClkSrvModel@@SAPAV1@PAVMClkModelObserver@@H@Z @ 33 NONAME ; class CClkUiClkSrvModel * CClkUiClkSrvModel::NewL(class MClkModelObserver *, int)
	?NotifyL@CClkUiMdlIntermediateObserver@@IAEXH@Z @ 34 NONAME ; void CClkUiMdlIntermediateObserver::NotifyL(int)
	?NotifyL@CClkUiModelBase@@IAEXH@Z @ 35 NONAME ; void CClkUiModelBase::NotifyL(int)
	?ReturnWhatChanged@CClkUiClkSrvModel@@QAEHXZ @ 36 NONAME ; int CClkUiClkSrvModel::ReturnWhatChanged(void)
	?ReturnWhoChanged@CClkUiClkSrvModel@@QAEHXZ @ 37 NONAME ; int CClkUiClkSrvModel::ReturnWhoChanged(void)
	?RunL@CClkUiMdlListenerBase@@UAEXXZ @ 38 NONAME ; void CClkUiMdlListenerBase::RunL(void)
	?SaveLatestAlarmId@CClkUiAlarmModel@@QAEXH@Z @ 39 NONAME ; void CClkUiAlarmModel::SaveLatestAlarmId(int)
	?SetListenerActive@CClkUiModelBase@@IAEXPAVCClkUiMdlListenerBase@@@Z @ 40 NONAME ; void CClkUiModelBase::SetListenerActive(class CClkUiMdlListenerBase *)
	?SetModelObserver@CClkUiMdlIntermediateObserver@@QAEXPAVMClkModelObserver@@@Z @ 41 NONAME ; void CClkUiMdlIntermediateObserver::SetModelObserver(class MClkModelObserver *)
	?SetModelObserver@CClkUiModelBase@@QAEXPAVMClkModelObserver@@@Z @ 42 NONAME ; void CClkUiModelBase::SetModelObserver(class MClkModelObserver *)
	?Start@CClkUiModelBase@@QAEXXZ @ 43 NONAME ; void CClkUiModelBase::Start(void)
	?Stop@CClkUiModelBase@@QAEXXZ @ 44 NONAME ; void CClkUiModelBase::Stop(void)

