EXPORTS
	?checkMultipleCreation@CCalenController@@AAEXXZ @ 1 NONAME ; void CCalenController::checkMultipleCreation(void)
	?SetDefaultContext@CCalenController@@AAEXXZ @ 2 NONAME ; void CCalenController::SetDefaultContext(void)
	?getFirstView@CCalenController@@QAEHXZ @ 3 NONAME ; int CCalenController::getFirstView(void)
	?handleServiceManagerSlot@CCalenController@@QAEXHABVQDateTime@@@Z @ 4 NONAME ; void CCalenController::handleServiceManagerSlot(int, class QDateTime const &)
	?context@CCalenController@@QAEAAVMCalenContext@@XZ @ 5 NONAME ; class MCalenContext & CCalenController::context(void)
	?ViewManager@CCalenController@@QAEAAVCalenViewManager@@XZ @ 6 NONAME ; class CalenViewManager & CCalenController::ViewManager(void)
	?Infobar@CCalenController@@QAEPAVHbWidget@@XZ @ 7 NONAME ; class HbWidget * CCalenController::Infobar(void)
	?agendaInterface@CCalenController@@QAEPAVAgendaUtil@@XZ @ 8 NONAME ; class AgendaUtil * CCalenController::agendaInterface(void)
	?BroadcastNotification@CCalenController@@QAEXW4TCalenNotification@@@Z @ 9 NONAME ; void CCalenController::BroadcastNotification(enum TCalenNotification)
	?MainWindow@CCalenController@@QAEAAVHbMainWindow@@XZ @ 10 NONAME ; class HbMainWindow & CCalenController::MainWindow(void)
	?CancelNotifications@CCalenController@@QAEXPAVMCalenNotificationHandler@@@Z @ 11 NONAME ; void CCalenController::CancelNotifications(class MCalenNotificationHandler *)
	?Notifier@CCalenController@@QAEAAVCalenNotifier@@XZ @ 12 NONAME ; class CalenNotifier & CCalenController::Notifier(void)
	?InstanceL@CCalenController@@SAPAV1@XZ @ 13 NONAME ; class CCalenController * CCalenController::InstanceL(void)
	?CustomisationManager@CCalenController@@QAEAAVCCalenCustomisationManager@@XZ @ 14 NONAME ; class CCalenCustomisationManager & CCalenController::CustomisationManager(void)
	?IssueCommandL@CCalenController@@QAEHH@Z @ 15 NONAME ; int CCalenController::IssueCommandL(int)
	?Services@CCalenController@@QAEAAVMCalenServices@@XZ @ 16 NONAME ; class MCalenServices & CCalenController::Services(void)
	?InfobarTextL@CCalenController@@QAEPAVQString@@XZ @ 17 NONAME ; class QString * CCalenController::InfobarTextL(void)
	?Release@CCalenController@@QAEXXZ @ 18 NONAME ; void CCalenController::Release(void)
	?RegisterForNotificationsL@CCalenController@@QAEXPAVMCalenNotificationHandler@@W4TCalenNotification@@@Z @ 19 NONAME ; void CCalenController::RegisterForNotificationsL(class MCalenNotificationHandler *, enum TCalenNotification)
	??0CCalenController@@QAE@_N@Z @ 20 NONAME ; CCalenController::CCalenController(bool)
	?GetCommandHandlerL@CCalenController@@QAEPAVMCalenCommandHandler@@H@Z @ 21 NONAME ; class MCalenCommandHandler * CCalenController::GetCommandHandlerL(int)
	??1CCalenController@@QAE@XZ @ 22 NONAME ; CCalenController::~CCalenController(void)
	?OfferMenu@CCalenController@@QAEXPAVHbMenu@@@Z @ 23 NONAME ; void CCalenController::OfferMenu(class HbMenu *)
	?RegisterForNotificationsL@CCalenController@@QAEXPAVMCalenNotificationHandler@@AAV?$RArray@W4TCalenNotification@@@@@Z @ 24 NONAME ; void CCalenController::RegisterForNotificationsL(class MCalenNotificationHandler *, class RArray<enum TCalenNotification> &)
	?NewServicesL@CCalenController@@UAEPAVMCalenServices@@XZ @ 25 NONAME ; class MCalenServices * CCalenController::NewServicesL(void)

