EXPORTS
	?scrollingFinished@CalenPreviewPane@@QAEXXZ @ 1 NONAME ; void CalenPreviewPane::scrollingFinished(void)
	?setDate@CalenMonthView@@AAEXXZ @ 2 NONAME ; void CalenMonthView::setDate(void)
	?handleGridItemActivated@CalenMonthView@@QAEXXZ @ 3 NONAME ; void CalenMonthView::handleGridItemActivated(void)
	?setFocusToProperDay@CalenMonthGrid@@AAEXXZ @ 4 NONAME ; void CalenMonthGrid::setFocusToProperDay(void)
	??1CalenPreviewPane@@UAE@XZ @ 5 NONAME ; CalenPreviewPane::~CalenPreviewPane(void)
	?mousePressEvent@CalenMonthGrid@@EAEXPAVQGraphicsSceneMouseEvent@@@Z @ 6 NONAME ; void CalenMonthGrid::mousePressEvent(class QGraphicsSceneMouseEvent *)
	?completePopulation@CalenMonthView@@AAEXXZ @ 7 NONAME ; void CalenMonthView::completePopulation(void)
	?handleChangeOrientation@CalenMonthView@@AAEXXZ @ 8 NONAME ; void CalenMonthView::handleChangeOrientation(void)
	?staticMetaObject@CalenSettingsView@@2UQMetaObject@@B @ 9 NONAME ; struct QMetaObject const CalenSettingsView::staticMetaObject
	?upGesture@CalenMonthGrid@@MAEXH@Z @ 10 NONAME ; void CalenMonthGrid::upGesture(int)
	?getStaticMetaObject@CalenSettingsView@@SAABUQMetaObject@@XZ @ 11 NONAME ; struct QMetaObject const & CalenSettingsView::getStaticMetaObject(void)
	?updateMonthDataArrayWithActiveDates@CalenMonthView@@AAEXXZ @ 12 NONAME ; void CalenMonthView::updateMonthDataArrayWithActiveDates(void)
	?setActiveDates@CalenMonthGrid@@AAEXVQDateTime@@@Z @ 13 NONAME ; void CalenMonthGrid::setActiveDates(class QDateTime)
	?scrollingFinished@CalenMonthGrid@@QAEXXZ @ 14 NONAME ; void CalenMonthGrid::scrollingFinished(void)
	?setCurrentIdex@CalenMonthGrid@@QAEXH@Z @ 15 NONAME ; void CalenMonthGrid::setCurrentIdex(int)
	??_ECalenMonthGrid@@UAE@I@Z @ 16 NONAME ; CalenMonthGrid::~CalenMonthGrid(unsigned int)
	?trUtf8@CalenPreviewPane@@SA?AVQString@@PBD0@Z @ 17 NONAME ; class QString CalenPreviewPane::trUtf8(char const *, char const *)
	?trUtf8@CalenMonthGrid@@SA?AVQString@@PBD0@Z @ 18 NONAME ; class QString CalenMonthGrid::trUtf8(char const *, char const *)
	?populatePrevMonth@CalenMonthView@@QAEXXZ @ 19 NONAME ; void CalenMonthView::populatePrevMonth(void)
	?qt_metacall@CalenSettingsView@@UAEHW4Call@QMetaObject@@HPAPAX@Z @ 20 NONAME ; int CalenSettingsView::qt_metacall(enum QMetaObject::Call, int, void * *)
	?handleLeftEffectCompleted@CalenMonthView@@AAEXABUEffectStatus@HbEffect@@@Z @ 21 NONAME ; void CalenMonthView::handleLeftEffectCompleted(struct HbEffect::EffectStatus const &)
	?getStaticMetaObject@CalenMonthGrid@@SAABUQMetaObject@@XZ @ 22 NONAME ; struct QMetaObject const & CalenMonthGrid::getStaticMetaObject(void)
	?trUtf8@CalenSettingsView@@SA?AVQString@@PBD0H@Z @ 23 NONAME ; class QString CalenSettingsView::trUtf8(char const *, char const *, int)
	?qt_metacast@CalenMonthView@@UAEPAXPBD@Z @ 24 NONAME ; void * CalenMonthView::qt_metacast(char const *)
	?staticMetaObject@CalenMonthView@@2UQMetaObject@@B @ 25 NONAME ; struct QMetaObject const CalenMonthView::staticMetaObject
	?setupView@CalenMonthView@@QAEXPAVCalenDocLoader@@@Z @ 26 NONAME ; void CalenMonthView::setupView(class CalenDocLoader *)
	?metaObject@CalenMonthGrid@@UBEPBUQMetaObject@@XZ @ 27 NONAME ; struct QMetaObject const * CalenMonthGrid::metaObject(void) const
	?startAutoScroll@CalenPreviewPane@@QAEXXZ @ 28 NONAME ; void CalenPreviewPane::startAutoScroll(void)
	?setView@CalenMonthGrid@@QAEXPAVCalenMonthView@@@Z @ 29 NONAME ; void CalenMonthGrid::setView(class CalenMonthView *)
	?HandleNotification@CalenDayView@@UAEXW4TCalenNotification@@@Z @ 30 NONAME ; void CalenDayView::HandleNotification(enum TCalenNotification)
	?panGesture@CalenMonthGrid@@MAEXABVQPointF@@@Z @ 31 NONAME ; void CalenMonthGrid::panGesture(class QPointF const &)
	?mousePressEvent@CalenPreviewPane@@UAEXPAVQGraphicsSceneMouseEvent@@@Z @ 32 NONAME ; void CalenPreviewPane::mousePressEvent(class QGraphicsSceneMouseEvent *)
	??1CalenSettingsView@@UAE@XZ @ 33 NONAME ; CalenSettingsView::~CalenSettingsView(void)
	?Date@CalenPreviewPane@@QAE?AVQDateTime@@XZ @ 34 NONAME ; class QDateTime CalenPreviewPane::Date(void)
	?tr@CalenPreviewPane@@SA?AVQString@@PBD0H@Z @ 35 NONAME ; class QString CalenPreviewPane::tr(char const *, char const *, int)
	?getInstanceList@CalenMonthView@@AAEXAAV?$QList@VAgendaEntry@@@@VQDateTime@@1@Z @ 36 NONAME ; void CalenMonthView::getInstanceList(class QList<class AgendaEntry> &, class QDateTime, class QDateTime)
	?metaObject@CalenMonthView@@UBEPBUQMetaObject@@XZ @ 37 NONAME ; struct QMetaObject const * CalenMonthView::metaObject(void) const
	??0CalenPreviewPane@@QAE@AAVMCalenServices@@PAVQGraphicsItem@@@Z @ 38 NONAME ; CalenPreviewPane::CalenPreviewPane(class MCalenServices &, class QGraphicsItem *)
	?mouseReleaseEvent@CalenPreviewPane@@UAEXPAVQGraphicsSceneMouseEvent@@@Z @ 39 NONAME ; void CalenPreviewPane::mouseReleaseEvent(class QGraphicsSceneMouseEvent *)
	?rowsInPrevMonth@CalenMonthView@@QAEHXZ @ 40 NONAME ; int CalenMonthView::rowsInPrevMonth(void)
	?metaObject@CalenPreviewPane@@UBEPBUQMetaObject@@XZ @ 41 NONAME ; struct QMetaObject const * CalenPreviewPane::metaObject(void) const
	??0CalenDayView@@QAE@AAVMCalenServices@@@Z @ 42 NONAME ; CalenDayView::CalenDayView(class MCalenServices &)
	?populateNextMonth@CalenMonthView@@QAEXXZ @ 43 NONAME ; void CalenMonthView::populateNextMonth(void)
	?handleRightEffectCompleted@CalenMonthView@@AAEXABUEffectStatus@HbEffect@@@Z @ 44 NONAME ; void CalenMonthView::handleRightEffectCompleted(struct HbEffect::EffectStatus const &)
	?qt_metacast@CalenMonthGrid@@UAEPAXPBD@Z @ 45 NONAME ; void * CalenMonthGrid::qt_metacast(char const *)
	?rowsInFutMonth@CalenMonthView@@QAEHXZ @ 46 NONAME ; int CalenMonthView::rowsInFutMonth(void)
	?getCurrGridIndex@CalenMonthView@@QAEHXZ @ 47 NONAME ; int CalenMonthView::getCurrGridIndex(void)
	?launchDayView@CalenMonthView@@QAEXXZ @ 48 NONAME ; void CalenMonthView::launchDayView(void)
	??1CalenDayViewWidget@@UAE@XZ @ 49 NONAME ; CalenDayViewWidget::~CalenDayViewWidget(void)
	??0CalenDayViewWidget@@QAE@AAVMCalenServices@@PAVCalenDocLoader@@@Z @ 50 NONAME ; CalenDayViewWidget::CalenDayViewWidget(class MCalenServices &, class CalenDocLoader *)
	?prependRows@CalenMonthGrid@@QAEXXZ @ 51 NONAME ; void CalenMonthGrid::prependRows(void)
	?orientationChanged@CalenMonthGrid@@MAEXW4Orientation@Qt@@@Z @ 52 NONAME ; void CalenMonthGrid::orientationChanged(enum Qt::Orientation)
	?handleGridItemLongPressed@CalenMonthView@@QAEXHAAVQPointF@@@Z @ 53 NONAME ; void CalenMonthView::handleGridItemLongPressed(int, class QPointF &)
	?qt_metacall@CalenPreviewPane@@UAEHW4Call@QMetaObject@@HPAPAX@Z @ 54 NONAME ; int CalenPreviewPane::qt_metacall(enum QMetaObject::Call, int, void * *)
	?trUtf8@CalenPreviewPane@@SA?AVQString@@PBD0H@Z @ 55 NONAME ; class QString CalenPreviewPane::trUtf8(char const *, char const *, int)
	??1CalenThickLinesDrawer@@UAE@XZ @ 56 NONAME ; CalenThickLinesDrawer::~CalenThickLinesDrawer(void)
	?setView@CalenPreviewPane@@QAEXPAVCalenMonthView@@@Z @ 57 NONAME ; void CalenPreviewPane::setView(class CalenMonthView *)
	??_ECalenMonthView@@UAE@I@Z @ 58 NONAME ; CalenMonthView::~CalenMonthView(unsigned int)
	?changeOrientation@CalenMonthView@@UAEXW4Orientation@Qt@@@Z @ 59 NONAME ; void CalenMonthView::changeOrientation(enum Qt::Orientation)
	?populatePreviewPane@CalenMonthView@@QAEXAAVQDateTime@@@Z @ 60 NONAME ; void CalenMonthView::populatePreviewPane(class QDateTime &)
	??0CalenSettingsView@@QAE@AAVMCalenServices@@PAVQGraphicsItem@@@Z @ 61 NONAME ; CalenSettingsView::CalenSettingsView(class MCalenServices &, class QGraphicsItem *)
	?updateModelWithPrevMonth@CalenMonthView@@QAEXXZ @ 62 NONAME ; void CalenMonthView::updateModelWithPrevMonth(void)
	?stopScrolling@CalenPreviewPane@@QAEXXZ @ 63 NONAME ; void CalenPreviewPane::stopScrolling(void)
	?addBackgroundFrame@CalenMonthView@@AAEXXZ @ 64 NONAME ; void CalenMonthView::addBackgroundFrame(void)
	?createGrid@CalenMonthView@@AAEXXZ @ 65 NONAME ; void CalenMonthView::createGrid(void)
	?tr@CalenPreviewPane@@SA?AVQString@@PBD0@Z @ 66 NONAME ; class QString CalenPreviewPane::tr(char const *, char const *)
	?getStaticMetaObject@CalenPreviewPane@@SAABUQMetaObject@@XZ @ 67 NONAME ; struct QMetaObject const & CalenPreviewPane::getStaticMetaObject(void)
	?launchPreviousView@CalenSettingsView@@AAEXXZ @ 68 NONAME ; void CalenSettingsView::launchPreviousView(void)
	?setCurrGridIndex@CalenMonthView@@QAEXH@Z @ 69 NONAME ; void CalenMonthView::setCurrGridIndex(int)
	?setDateToLabel@CalenMonthView@@AAEXXZ @ 70 NONAME ; void CalenMonthView::setDateToLabel(void)
	?addWeekNumbers@CalenMonthView@@AAEXXZ @ 71 NONAME ; void CalenMonthView::addWeekNumbers(void)
	?qt_metacall@CalenThickLinesDrawer@@UAEHW4Call@QMetaObject@@HPAPAX@Z @ 72 NONAME ; int CalenThickLinesDrawer::qt_metacall(enum QMetaObject::Call, int, void * *)
	?setupView@CalenDayView@@QAEXPAVCalenDocLoader@@@Z @ 73 NONAME ; void CalenDayView::setupView(class CalenDocLoader *)
	??1CalenMonthView@@UAE@XZ @ 74 NONAME ; CalenMonthView::~CalenMonthView(void)
	?dateFromContext@CalenMonthView@@AAE?AVQDateTime@@ABVMCalenContext@@@Z @ 75 NONAME ; class QDateTime CalenMonthView::dateFromContext(class MCalenContext const &)
	?staticMetaObject@CalenMonthGrid@@2UQMetaObject@@B @ 76 NONAME ; struct QMetaObject const CalenMonthGrid::staticMetaObject
	?paint@CalenThickLinesDrawer@@EAEXPAVQPainter@@PBVQStyleOptionGraphicsItem@@PAVQWidget@@@Z @ 77 NONAME ; void CalenThickLinesDrawer::paint(class QPainter *, class QStyleOptionGraphicsItem const *, class QWidget *)
	?trUtf8@CalenMonthGrid@@SA?AVQString@@PBD0H@Z @ 78 NONAME ; class QString CalenMonthGrid::trUtf8(char const *, char const *, int)
	?initializeForm@CalenSettingsView@@QAEXXZ @ 79 NONAME ; void CalenSettingsView::initializeForm(void)
	?tr@CalenMonthGrid@@SA?AVQString@@PBD0H@Z @ 80 NONAME ; class QString CalenMonthGrid::tr(char const *, char const *, int)
	?goToToday@CalenMonthView@@AAEXXZ @ 81 NONAME ; void CalenMonthView::goToToday(void)
	?trUtf8@CalenThickLinesDrawer@@SA?AVQString@@PBD0H@Z @ 82 NONAME ; class QString CalenThickLinesDrawer::trUtf8(char const *, char const *, int)
	?qt_metacast@CalenPreviewPane@@UAEPAXPBD@Z @ 83 NONAME ; void * CalenPreviewPane::qt_metacast(char const *)
	?docLoader@CalenDayView@@QAEPAVCalenDocLoader@@XZ @ 84 NONAME ; class CalenDocLoader * CalenDayView::docLoader(void)
	?getCurrentIndex@CalenMonthGrid@@QAEHXZ @ 85 NONAME ; int CalenMonthGrid::getCurrentIndex(void)
	?removeWeekNumbers@CalenMonthView@@AAEXXZ @ 86 NONAME ; void CalenMonthView::removeWeekNumbers(void)
	?tr@CalenSettingsView@@SA?AVQString@@PBD0H@Z @ 87 NONAME ; class QString CalenSettingsView::tr(char const *, char const *, int)
	??0CalenMonthView@@QAE@AAVMCalenServices@@@Z @ 88 NONAME ; CalenMonthView::CalenMonthView(class MCalenServices &)
	?getStaticMetaObject@CalenThickLinesDrawer@@SAABUQMetaObject@@XZ @ 89 NONAME ; struct QMetaObject const & CalenThickLinesDrawer::getStaticMetaObject(void)
	?setNoEntriesLabel@CalenPreviewPane@@QAEXPAVHbLabel@@@Z @ 90 NONAME ; void CalenPreviewPane::setNoEntriesLabel(class HbLabel *)
	?trUtf8@CalenMonthView@@SA?AVQString@@PBD0H@Z @ 91 NONAME ; class QString CalenMonthView::trUtf8(char const *, char const *, int)
	??0CalenThickLinesDrawer@@QAE@W4WidgetType@CalendarNamespace@@PAVQGraphicsItem@@@Z @ 92 NONAME ; CalenThickLinesDrawer::CalenThickLinesDrawer(enum CalendarNamespace::WidgetType, class QGraphicsItem *)
	?onLocaleChanged@CalenMonthView@@UAEXH@Z @ 93 NONAME ; void CalenMonthView::onLocaleChanged(int)
	?doPopulation@CalenMonthView@@UAEXXZ @ 94 NONAME ; void CalenMonthView::doPopulation(void)
	?tr@CalenMonthView@@SA?AVQString@@PBD0H@Z @ 95 NONAME ; class QString CalenMonthView::tr(char const *, char const *, int)
	?GetInstanceListL@CalenPreviewPane@@AAEXXZ @ 96 NONAME ; void CalenPreviewPane::GetInstanceListL(void)
	?tr@CalenMonthView@@SA?AVQString@@PBD0@Z @ 97 NONAME ; class QString CalenMonthView::tr(char const *, char const *)
	??0CalenMonthGrid@@QAE@PAVQGraphicsItem@@@Z @ 98 NONAME ; CalenMonthGrid::CalenMonthGrid(class QGraphicsItem *)
	?appendRows@CalenMonthGrid@@QAEXXZ @ 99 NONAME ; void CalenMonthGrid::appendRows(void)
	?tr@CalenThickLinesDrawer@@SA?AVQString@@PBD0H@Z @ 100 NONAME ; class QString CalenThickLinesDrawer::tr(char const *, char const *, int)
	?mouseReleaseEvent@CalenMonthGrid@@EAEXPAVQGraphicsSceneMouseEvent@@@Z @ 101 NONAME ; void CalenMonthGrid::mouseReleaseEvent(class QGraphicsSceneMouseEvent *)
	?getCurrentDay@CalenMonthView@@QAE?AVQDateTime@@XZ @ 102 NONAME ; class QDateTime CalenMonthView::getCurrentDay(void)
	?staticMetaObject@CalenPreviewPane@@2UQMetaObject@@B @ 103 NONAME ; struct QMetaObject const CalenPreviewPane::staticMetaObject
	?tr@CalenSettingsView@@SA?AVQString@@PBD0@Z @ 104 NONAME ; class QString CalenSettingsView::tr(char const *, char const *)
	?onTwoSecondsTimeout@CalenPreviewPane@@QAEXXZ @ 105 NONAME ; void CalenPreviewPane::onTwoSecondsTimeout(void)
	?timerExpired@CalenMonthGrid@@IAEXXZ @ 106 NONAME ; void CalenMonthGrid::timerExpired(void)
	?tr@CalenThickLinesDrawer@@SA?AVQString@@PBD0@Z @ 107 NONAME ; class QString CalenThickLinesDrawer::tr(char const *, char const *)
	?staticMetaObject@CalenThickLinesDrawer@@2UQMetaObject@@B @ 108 NONAME ; struct QMetaObject const CalenThickLinesDrawer::staticMetaObject
	?populateWithInstanceView@CalenMonthView@@AAEXXZ @ 109 NONAME ; void CalenMonthView::populateWithInstanceView(void)
	?trUtf8@CalenThickLinesDrawer@@SA?AVQString@@PBD0@Z @ 110 NONAME ; class QString CalenThickLinesDrawer::trUtf8(char const *, char const *)
	?downGesture@CalenMonthGrid@@MAEXH@Z @ 111 NONAME ; void CalenMonthGrid::downGesture(int)
	?populateLabel@CalenPreviewPane@@QAEXVQDateTime@@@Z @ 112 NONAME ; void CalenPreviewPane::populateLabel(class QDateTime)
	?doPopulation@CalenDayView@@UAEXXZ @ 113 NONAME ; void CalenDayView::doPopulation(void)
	??1CalenDayView@@UAE@XZ @ 114 NONAME ; CalenDayView::~CalenDayView(void)
	?updateModelWithFutureMonth@CalenMonthView@@QAEXXZ @ 115 NONAME ; void CalenMonthView::updateModelWithFutureMonth(void)
	?monthDataList@CalenMonthView@@QAE?AV?$QList@VCalenMonthData@@@@XZ @ 116 NONAME ; class QList<class CalenMonthData> CalenMonthView::monthDataList(void)
	?metaObject@CalenThickLinesDrawer@@UBEPBUQMetaObject@@XZ @ 117 NONAME ; struct QMetaObject const * CalenThickLinesDrawer::metaObject(void) const
	??1CalenMonthGrid@@UAE@XZ @ 118 NONAME ; CalenMonthGrid::~CalenMonthGrid(void)
	?updateWeekNumGridModel@CalenMonthView@@AAEXXZ @ 119 NONAME ; void CalenMonthView::updateWeekNumGridModel(void)
	?qt_metacast@CalenThickLinesDrawer@@UAEPAXPBD@Z @ 120 NONAME ; void * CalenThickLinesDrawer::qt_metacast(char const *)
	?prepareForPopulation@CalenMonthView@@AAEXXZ @ 121 NONAME ; void CalenMonthView::prepareForPopulation(void)
	?handlePreviewPaneGesture@CalenMonthView@@QAEX_N@Z @ 122 NONAME ; void CalenMonthView::handlePreviewPaneGesture(bool)
	?updateMonthGridModel@CalenMonthGrid@@QAEXAAV?$QList@VCalenMonthData@@@@H@Z @ 123 NONAME ; void CalenMonthGrid::updateMonthGridModel(class QList<class CalenMonthData> &, int)
	?trUtf8@CalenMonthView@@SA?AVQString@@PBD0@Z @ 124 NONAME ; class QString CalenMonthView::trUtf8(char const *, char const *)
	?setContextForActiveDay@CalenMonthView@@QAEXH@Z @ 125 NONAME ; void CalenMonthView::setContextForActiveDay(int)
	??_ECalenSettingsView@@UAE@I@Z @ 126 NONAME ; CalenSettingsView::~CalenSettingsView(unsigned int)
	?trUtf8@CalenSettingsView@@SA?AVQString@@PBD0@Z @ 127 NONAME ; class QString CalenSettingsView::trUtf8(char const *, char const *)
	??_ECalenThickLinesDrawer@@UAE@I@Z @ 128 NONAME ; CalenThickLinesDrawer::~CalenThickLinesDrawer(unsigned int)
	?metaObject@CalenSettingsView@@UBEPBUQMetaObject@@XZ @ 129 NONAME ; struct QMetaObject const * CalenSettingsView::metaObject(void) const
	?getStaticMetaObject@CalenMonthView@@SAABUQMetaObject@@XZ @ 130 NONAME ; struct QMetaObject const & CalenMonthView::getStaticMetaObject(void)
	?qt_metacast@CalenSettingsView@@UAEPAXPBD@Z @ 131 NONAME ; void * CalenSettingsView::qt_metacast(char const *)
	?tr@CalenMonthGrid@@SA?AVQString@@PBD0@Z @ 132 NONAME ; class QString CalenMonthGrid::tr(char const *, char const *)
	?qt_metacall@CalenMonthView@@UAEHW4Call@QMetaObject@@HPAPAX@Z @ 133 NONAME ; int CalenMonthView::qt_metacall(enum QMetaObject::Call, int, void * *)
	?setActiveDay@CalenMonthView@@AAEXVQDateTime@@@Z @ 134 NONAME ; void CalenMonthView::setActiveDay(class QDateTime)
	?itemActivated@CalenMonthGrid@@QAEXABVQModelIndex@@@Z @ 135 NONAME ; void CalenMonthGrid::itemActivated(class QModelIndex const &)
	?qt_metacall@CalenMonthGrid@@UAEHW4Call@QMetaObject@@HPAPAX@Z @ 136 NONAME ; int CalenMonthGrid::qt_metacall(enum QMetaObject::Call, int, void * *)
	??_ECalenPreviewPane@@UAE@I@Z @ 137 NONAME ; CalenPreviewPane::~CalenPreviewPane(unsigned int)
	?createEditor@CalenMonthView@@AAEXXZ @ 138 NONAME ; void CalenMonthView::createEditor(void)
	?getActiveDay@CalenMonthView@@QAE?AVQDateTime@@XZ @ 139 NONAME ; class QDateTime CalenMonthView::getActiveDay(void)

