EXPORTS
	_ZN12CalenDayView12doPopulationEv @ 1 NONAME
	_ZN12CalenDayView14clearListModelEv @ 2 NONAME
	_ZN12CalenDayView18HandleNotificationE18TCalenNotification @ 3 NONAME
	_ZN12CalenDayView9docLoaderEv @ 4 NONAME
	_ZN12CalenDayView9setupViewEP14CalenDocLoader @ 5 NONAME
	_ZN12CalenDayViewC1ER14MCalenServices @ 6 NONAME
	_ZN12CalenDayViewC2ER14MCalenServices @ 7 NONAME
	_ZN12CalenDayViewD0Ev @ 8 NONAME
	_ZN12CalenDayViewD1Ev @ 9 NONAME
	_ZN12CalenDayViewD2Ev @ 10 NONAME
	_ZN14CalenMonthGrid10appendRowsEv @ 11 NONAME
	_ZN14CalenMonthGrid11downGestureEv @ 12 NONAME
	_ZN14CalenMonthGrid11prependRowsEv @ 13 NONAME
	_ZN14CalenMonthGrid11qt_metacallEN11QMetaObject4CallEiPPv @ 14 NONAME
	_ZN14CalenMonthGrid11qt_metacastEPKc @ 15 NONAME
	_ZN14CalenMonthGrid12gestureEventEP13QGestureEvent @ 16 NONAME
	_ZN14CalenMonthGrid13itemActivatedERK11QModelIndex @ 17 NONAME
	_ZN14CalenMonthGrid14setActiveDatesE5QDate @ 18 NONAME
	_ZN14CalenMonthGrid14setCurrentIdexEi @ 19 NONAME
	_ZN14CalenMonthGrid15getCurrentIndexEv @ 20 NONAME
	_ZN14CalenMonthGrid15mousePressEventEP24QGraphicsSceneMouseEvent @ 21 NONAME
	_ZN14CalenMonthGrid16staticMetaObjectE @ 22 NONAME DATA 16
	_ZN14CalenMonthGrid17mouseReleaseEventEP24QGraphicsSceneMouseEvent @ 23 NONAME
	_ZN14CalenMonthGrid17scrollingFinishedEv @ 24 NONAME
	_ZN14CalenMonthGrid18orientationChangedEN2Qt11OrientationE @ 25 NONAME
	_ZN14CalenMonthGrid19getStaticMetaObjectEv @ 26 NONAME
	_ZN14CalenMonthGrid19handleAppendingRowsER5QListI14CalenMonthDataE @ 27 NONAME
	_ZN14CalenMonthGrid19setFocusToProperDayEv @ 28 NONAME
	_ZN14CalenMonthGrid20handlePrependingRowsER5QListI14CalenMonthDataE @ 29 NONAME
	_ZN14CalenMonthGrid20updateMonthGridModelER5QListI14CalenMonthDataEib @ 30 NONAME
	_ZN14CalenMonthGrid24handlePanGestureFinishedEv @ 31 NONAME
	_ZN14CalenMonthGrid33updateMonthGridWithInActiveMonthsER5QListI14CalenMonthDataE @ 32 NONAME
	_ZN14CalenMonthGrid34updateMonthGridWithEventIndicatorsER5QListI14CalenMonthDataE @ 33 NONAME
	_ZN14CalenMonthGrid5paintEP8QPainterPK24QStyleOptionGraphicsItemP7QWidget @ 34 NONAME
	_ZN14CalenMonthGrid7setViewEP14CalenMonthView @ 35 NONAME
	_ZN14CalenMonthGrid9upGestureEv @ 36 NONAME
	_ZN14CalenMonthGridC1EP13QGraphicsItem @ 37 NONAME
	_ZN14CalenMonthGridC2EP13QGraphicsItem @ 38 NONAME
	_ZN14CalenMonthGridD0Ev @ 39 NONAME
	_ZN14CalenMonthGridD1Ev @ 40 NONAME
	_ZN14CalenMonthGridD2Ev @ 41 NONAME
	_ZN14CalenMonthView10createGridEv @ 42 NONAME
	_ZN14CalenMonthView11qt_metacallEN11QMetaObject4CallEiPPv @ 43 NONAME
	_ZN14CalenMonthView11qt_metacastEPKc @ 44 NONAME
	_ZN14CalenMonthView12createEditorEv @ 45 NONAME
	_ZN14CalenMonthView12doPopulationEv @ 46 NONAME
	_ZN14CalenMonthView12getActiveDayEv @ 47 NONAME
	_ZN14CalenMonthView12setActiveDayE9QDateTime @ 48 NONAME
	_ZN14CalenMonthView13doLazyLoadingEv @ 49 NONAME
	_ZN14CalenMonthView13getCurrentDayEv @ 50 NONAME
	_ZN14CalenMonthView13launchDayViewEv @ 51 NONAME
	_ZN14CalenMonthView13monthDataListEv @ 52 NONAME
	_ZN14CalenMonthView14addWeekNumbersEv @ 53 NONAME
	_ZN14CalenMonthView14firstDayOfGridEv @ 54 NONAME
	_ZN14CalenMonthView14rowsInFutMonthEv @ 55 NONAME
	_ZN14CalenMonthView14setDateToLabelEv @ 56 NONAME
	_ZN14CalenMonthView14updateDayLabelEv @ 57 NONAME
	_ZN14CalenMonthView15dateFromContextERK13MCalenContext @ 58 NONAME
	_ZN14CalenMonthView15getInstanceListER5QListI5QDateE9QDateTimeS4_ @ 59 NONAME
	_ZN14CalenMonthView15onLocaleChangedEi @ 60 NONAME
	_ZN14CalenMonthView15rowsInPrevMonthEv @ 61 NONAME
	_ZN14CalenMonthView16getCurrGridIndexEv @ 62 NONAME
	_ZN14CalenMonthView16onContextChangedEv @ 63 NONAME
	_ZN14CalenMonthView16setCurrGridIndexEi @ 64 NONAME
	_ZN14CalenMonthView16staticMetaObjectE @ 65 NONAME DATA 16
	_ZN14CalenMonthView17changeOrientationEN2Qt11OrientationE @ 66 NONAME
	_ZN14CalenMonthView17populateNextMonthEv @ 67 NONAME
	_ZN14CalenMonthView17populatePrevMonthEv @ 68 NONAME
	_ZN14CalenMonthView17removeWeekNumbersEv @ 69 NONAME
	_ZN14CalenMonthView18addBackgroundFrameEv @ 70 NONAME
	_ZN14CalenMonthView18completePopulationEv @ 71 NONAME
	_ZN14CalenMonthView19getStaticMetaObjectEv @ 72 NONAME
	_ZN14CalenMonthView19populatePreviewPaneER9QDateTime @ 73 NONAME
	_ZN14CalenMonthView20prepareForPopulationEv @ 74 NONAME
	_ZN14CalenMonthView21refreshViewOnGoToDateEv @ 75 NONAME
	_ZN14CalenMonthView22addRemoveActionsInMenuEv @ 76 NONAME
	_ZN14CalenMonthView22setContextForActiveDayEi @ 77 NONAME
	_ZN14CalenMonthView22updateWeekNumGridModelEv @ 78 NONAME
	_ZN14CalenMonthView23handleChangeOrientationEv @ 79 NONAME
	_ZN14CalenMonthView23handleGridItemActivatedEv @ 80 NONAME
	_ZN14CalenMonthView24handlePreviewPaneGestureEb @ 81 NONAME
	_ZN14CalenMonthView24populateWithInstanceViewEv @ 82 NONAME
	_ZN14CalenMonthView24updateModelWithPrevMonthEv @ 83 NONAME
	_ZN14CalenMonthView25handleLeftEffectCompletedERKN8HbEffect12EffectStatusE @ 84 NONAME
	_ZN14CalenMonthView26fetchEntriesAndUpdateModelEv @ 85 NONAME
	_ZN14CalenMonthView26handleRightEffectCompletedERKN8HbEffect12EffectStatusE @ 86 NONAME
	_ZN14CalenMonthView26updateModelWithFutureMonthEv @ 87 NONAME
	_ZN14CalenMonthView27showHideRegionalInformationEv @ 88 NONAME
	_ZN14CalenMonthView35updateMonthDataArrayWithActiveDatesEv @ 89 NONAME
	_ZN14CalenMonthView7setDateEv @ 90 NONAME
	_ZN14CalenMonthView9goToTodayEv @ 91 NONAME
	_ZN14CalenMonthView9setupViewEP14CalenDocLoader @ 92 NONAME
	_ZN14CalenMonthViewC1ER14MCalenServices @ 93 NONAME
	_ZN14CalenMonthViewC2ER14MCalenServices @ 94 NONAME
	_ZN14CalenMonthViewD0Ev @ 95 NONAME
	_ZN14CalenMonthViewD1Ev @ 96 NONAME
	_ZN14CalenMonthViewD2Ev @ 97 NONAME
	_ZN16CalenPluginLabelC1ER14MCalenServicesP13QGraphicsItem @ 98 NONAME
	_ZN16CalenPluginLabelC2ER14MCalenServicesP13QGraphicsItem @ 99 NONAME
	_ZN16CalenPluginLabelD0Ev @ 100 NONAME
	_ZN16CalenPluginLabelD1Ev @ 101 NONAME
	_ZN16CalenPluginLabelD2Ev @ 102 NONAME
	_ZN16CalenPreviewPane11qt_metacallEN11QMetaObject4CallEiPPv @ 103 NONAME
	_ZN16CalenPreviewPane11qt_metacastEPKc @ 104 NONAME
	_ZN16CalenPreviewPane12gestureEventEP13QGestureEvent @ 105 NONAME
	_ZN16CalenPreviewPane13populateLabelE9QDateTime @ 106 NONAME
	_ZN16CalenPreviewPane13stopScrollingEv @ 107 NONAME
	_ZN16CalenPreviewPane15startAutoScrollEv @ 108 NONAME
	_ZN16CalenPreviewPane16GetInstanceListLEv @ 109 NONAME
	_ZN16CalenPreviewPane16staticMetaObjectE @ 110 NONAME DATA 16
	_ZN16CalenPreviewPane17scrollingFinishedEv @ 111 NONAME
	_ZN16CalenPreviewPane17setNoEntriesLabelEP7HbLabel @ 112 NONAME
	_ZN16CalenPreviewPane19getStaticMetaObjectEv @ 113 NONAME
	_ZN16CalenPreviewPane19onTwoSecondsTimeoutEv @ 114 NONAME
	_ZN16CalenPreviewPane4DateEv @ 115 NONAME
	_ZN16CalenPreviewPane7setViewEP14CalenMonthView @ 116 NONAME
	_ZN16CalenPreviewPaneC1ER14MCalenServicesP13QGraphicsItem @ 117 NONAME
	_ZN16CalenPreviewPaneC2ER14MCalenServicesP13QGraphicsItem @ 118 NONAME
	_ZN16CalenPreviewPaneD0Ev @ 119 NONAME
	_ZN16CalenPreviewPaneD1Ev @ 120 NONAME
	_ZN16CalenPreviewPaneD2Ev @ 121 NONAME
	_ZN17CalenSettingsView11qt_metacallEN11QMetaObject4CallEiPPv @ 122 NONAME
	_ZN17CalenSettingsView11qt_metacastEPKc @ 123 NONAME
	_ZN17CalenSettingsView11refreshViewEv @ 124 NONAME
	_ZN17CalenSettingsView14initializeFormEv @ 125 NONAME
	_ZN17CalenSettingsView16staticMetaObjectE @ 126 NONAME DATA 16
	_ZN17CalenSettingsView18launchPreviousViewEv @ 127 NONAME
	_ZN17CalenSettingsView19getStaticMetaObjectEv @ 128 NONAME
	_ZN17CalenSettingsViewC1ER14MCalenServicesP13QGraphicsItem @ 129 NONAME
	_ZN17CalenSettingsViewC2ER14MCalenServicesP13QGraphicsItem @ 130 NONAME
	_ZN17CalenSettingsViewD0Ev @ 131 NONAME
	_ZN17CalenSettingsViewD1Ev @ 132 NONAME
	_ZN17CalenSettingsViewD2Ev @ 133 NONAME
	_ZN18CalenDayViewWidgetC1ER14MCalenServicesP14CalenDocLoader @ 134 NONAME
	_ZN18CalenDayViewWidgetC2ER14MCalenServicesP14CalenDocLoader @ 135 NONAME
	_ZN18CalenDayViewWidgetD0Ev @ 136 NONAME
	_ZN18CalenDayViewWidgetD1Ev @ 137 NONAME
	_ZN18CalenDayViewWidgetD2Ev @ 138 NONAME
	_ZN21CalenThickLinesDrawer11qt_metacallEN11QMetaObject4CallEiPPv @ 139 NONAME
	_ZN21CalenThickLinesDrawer11qt_metacastEPKc @ 140 NONAME
	_ZN21CalenThickLinesDrawer16staticMetaObjectE @ 141 NONAME DATA 16
	_ZN21CalenThickLinesDrawer19getStaticMetaObjectEv @ 142 NONAME
	_ZN21CalenThickLinesDrawer5paintEP8QPainterPK24QStyleOptionGraphicsItemP7QWidget @ 143 NONAME
	_ZN21CalenThickLinesDrawerC1EN17CalendarNamespace10WidgetTypeEP13QGraphicsItem @ 144 NONAME
	_ZN21CalenThickLinesDrawerC2EN17CalendarNamespace10WidgetTypeEP13QGraphicsItem @ 145 NONAME
	_ZN21CalenThickLinesDrawerD0Ev @ 146 NONAME
	_ZN21CalenThickLinesDrawerD1Ev @ 147 NONAME
	_ZN21CalenThickLinesDrawerD2Ev @ 148 NONAME
	_ZNK14CalenMonthGrid10metaObjectEv @ 149 NONAME
	_ZNK14CalenMonthView10metaObjectEv @ 150 NONAME
	_ZNK16CalenPreviewPane10metaObjectEv @ 151 NONAME
	_ZNK17CalenSettingsView10metaObjectEv @ 152 NONAME
	_ZNK21CalenThickLinesDrawer10metaObjectEv @ 153 NONAME
	_ZTI14CalenMonthGrid @ 154 NONAME
	_ZTI14CalenMonthView @ 155 NONAME
	_ZTI16CalenPreviewPane @ 156 NONAME
	_ZTI17CalenSettingsView @ 157 NONAME
	_ZTI21CalenThickLinesDrawer @ 158 NONAME
	_ZTV14CalenMonthGrid @ 159 NONAME
	_ZTV14CalenMonthView @ 160 NONAME
	_ZTV16CalenPreviewPane @ 161 NONAME
	_ZTV17CalenSettingsView @ 162 NONAME
	_ZTV21CalenThickLinesDrawer @ 163 NONAME
	_ZThn16_N12CalenDayViewD0Ev @ 164 NONAME
	_ZThn16_N12CalenDayViewD1Ev @ 165 NONAME
	_ZThn16_N14CalenMonthGridD0Ev @ 166 NONAME
	_ZThn16_N14CalenMonthGridD1Ev @ 167 NONAME
	_ZThn16_N14CalenMonthViewD0Ev @ 168 NONAME
	_ZThn16_N14CalenMonthViewD1Ev @ 169 NONAME
	_ZThn16_N16CalenPluginLabelD0Ev @ 170 NONAME
	_ZThn16_N16CalenPluginLabelD1Ev @ 171 NONAME
	_ZThn16_N16CalenPreviewPaneD0Ev @ 172 NONAME
	_ZThn16_N16CalenPreviewPaneD1Ev @ 173 NONAME
	_ZThn16_N17CalenSettingsViewD0Ev @ 174 NONAME
	_ZThn16_N17CalenSettingsViewD1Ev @ 175 NONAME
	_ZThn16_N18CalenDayViewWidgetD0Ev @ 176 NONAME
	_ZThn16_N18CalenDayViewWidgetD1Ev @ 177 NONAME
	_ZThn16_N21CalenThickLinesDrawerD0Ev @ 178 NONAME
	_ZThn16_N21CalenThickLinesDrawerD1Ev @ 179 NONAME
	_ZThn28_N12CalenDayView18HandleNotificationE18TCalenNotification @ 180 NONAME
	_ZThn8_N12CalenDayViewD0Ev @ 181 NONAME
	_ZThn8_N12CalenDayViewD1Ev @ 182 NONAME
	_ZThn8_N14CalenMonthGrid15mousePressEventEP24QGraphicsSceneMouseEvent @ 183 NONAME
	_ZThn8_N14CalenMonthGrid17mouseReleaseEventEP24QGraphicsSceneMouseEvent @ 184 NONAME
	_ZThn8_N14CalenMonthGrid5paintEP8QPainterPK24QStyleOptionGraphicsItemP7QWidget @ 185 NONAME
	_ZThn8_N14CalenMonthGridD0Ev @ 186 NONAME
	_ZThn8_N14CalenMonthGridD1Ev @ 187 NONAME
	_ZThn8_N14CalenMonthViewD0Ev @ 188 NONAME
	_ZThn8_N14CalenMonthViewD1Ev @ 189 NONAME
	_ZThn8_N16CalenPluginLabelD0Ev @ 190 NONAME
	_ZThn8_N16CalenPluginLabelD1Ev @ 191 NONAME
	_ZThn8_N16CalenPreviewPaneD0Ev @ 192 NONAME
	_ZThn8_N16CalenPreviewPaneD1Ev @ 193 NONAME
	_ZThn8_N17CalenSettingsViewD0Ev @ 194 NONAME
	_ZThn8_N17CalenSettingsViewD1Ev @ 195 NONAME
	_ZThn8_N18CalenDayViewWidgetD0Ev @ 196 NONAME
	_ZThn8_N18CalenDayViewWidgetD1Ev @ 197 NONAME
	_ZThn8_N21CalenThickLinesDrawer5paintEP8QPainterPK24QStyleOptionGraphicsItemP7QWidget @ 198 NONAME
	_ZThn8_N21CalenThickLinesDrawerD0Ev @ 199 NONAME
	_ZThn8_N21CalenThickLinesDrawerD1Ev @ 200 NONAME
	_ZN12CalenDayView26disconnectAboutToQuitEventEv @ 201 NONAME
	_ZN15CalenNativeView17captureScreenshotEb @ 202 NONAME

