EXPORTS
	??_ETimezoneClient@@UAE@I@Z @ 1 NONAME ; TimezoneClient::~TimezoneClient(unsigned int)
	?locationSelectorModel@TimezoneClient@@QAEPAVQStandardItemModel@@XZ @ 2 NONAME ; class QStandardItemModel * TimezoneClient::locationSelectorModel(void)
	?getUtcDstOffsetL@TimezoneClient@@QAE_NAAHABVCTzId@@@Z @ 3 NONAME ; bool TimezoneClient::getUtcDstOffsetL(int &, class CTzId const &)
	?getLocations@TimezoneClient@@QAE?AV?$QList@ULocationInfo@@@@XZ @ 4 NONAME ; class QList<struct LocationInfo> TimezoneClient::getLocations(void)
	?getCityOffsetByNameAndId@TimezoneClient@@QAEHABVQString@@H@Z @ 5 NONAME ; int TimezoneClient::getCityOffsetByNameAndId(class QString const &, int)
	?intToMonth@TimezoneClient@@AAE?AW4TMonth@@H@Z @ 6 NONAME ; enum TMonth TimezoneClient::intToMonth(int)
	?getDstZoneOffset@TimezoneClient@@AAEHH@Z @ 7 NONAME ; int TimezoneClient::getDstZoneOffset(int)
	?environmentCallback@TimezoneClient@@SAHPAX@Z @ 8 NONAME ; int TimezoneClient::environmentCallback(void *)
	?trUtf8@TimezoneClient@@SA?AVQString@@PBD0H@Z @ 9 NONAME ; class QString TimezoneClient::trUtf8(char const *, char const *, int)
	?getStandardOffset@TimezoneClient@@QAEHH@Z @ 10 NONAME ; int TimezoneClient::getStandardOffset(int)
	?getCurrentZoneInfoL@TimezoneClient@@QAE?AULocationInfo@@XZ @ 11 NONAME ; struct LocationInfo TimezoneClient::getCurrentZoneInfoL(void)
	?createWorldClockModel@TimezoneClient@@QAEXXZ @ 12 NONAME ; void TimezoneClient::createWorldClockModel(void)
	?dstOn@TimezoneClient@@QAE_NH@Z @ 13 NONAME ; bool TimezoneClient::dstOn(int)
	?tr@TimezoneClient@@SA?AVQString@@PBD0H@Z @ 14 NONAME ; class QString TimezoneClient::tr(char const *, char const *, int)
	?setAsCurrentLocationL@TimezoneClient@@QAEXAAULocationInfo@@@Z @ 15 NONAME ; void TimezoneClient::setAsCurrentLocationL(struct LocationInfo &)
	?timeUpdateOn@TimezoneClient@@QAE_NXZ @ 16 NONAME ; bool TimezoneClient::timeUpdateOn(void)
	?staticMetaObject@TimezoneClient@@2UQMetaObject@@B @ 17 NONAME ; struct QMetaObject const TimezoneClient::staticMetaObject
	?qt_metacast@TimezoneClient@@UAEPAXPBD@Z @ 18 NONAME ; void * TimezoneClient::qt_metacast(char const *)
	?trUtf8@TimezoneClient@@SA?AVQString@@PBD0@Z @ 19 NONAME ; class QString TimezoneClient::trUtf8(char const *, char const *)
	?getDstRulesL@TimezoneClient@@QAEXAAVQDateTime@@0H@Z @ 20 NONAME ; void TimezoneClient::getDstRulesL(class QDateTime &, class QDateTime &, int)
	?getSavedLocations@TimezoneClient@@QAE?AV?$QList@ULocationInfo@@@@XZ @ 21 NONAME ; class QList<struct LocationInfo> TimezoneClient::getSavedLocations(void)
	?listUpdated@TimezoneClient@@IAEXXZ @ 22 NONAME ; void TimezoneClient::listUpdated(void)
	?populateCities@TimezoneClient@@AAEXXZ @ 23 NONAME ; void TimezoneClient::populateCities(void)
	?tr@TimezoneClient@@SA?AVQString@@PBD0@Z @ 24 NONAME ; class QString TimezoneClient::tr(char const *, char const *)
	?getStaticMetaObject@TimezoneClient@@SAABUQMetaObject@@XZ @ 25 NONAME ; struct QMetaObject const & TimezoneClient::getStaticMetaObject(void)
	?metaObject@TimezoneClient@@UBEPBUQMetaObject@@XZ @ 26 NONAME ; struct QMetaObject const * TimezoneClient::metaObject(void) const
	?setDateTime@TimezoneClient@@QAEXVQDateTime@@@Z @ 27 NONAME ; void TimezoneClient::setDateTime(class QDateTime)
	??0TimezoneClient@@QAE@PAVQObject@@@Z @ 28 NONAME ; TimezoneClient::TimezoneClient(class QObject *)
	?setTimeUpdateOn@TimezoneClient@@QAEX_N@Z @ 29 NONAME ; void TimezoneClient::setTimeUpdateOn(bool)
	?getCountries@TimezoneClient@@QAEXAAV?$QMap@VQString@@H@@@Z @ 30 NONAME ; void TimezoneClient::getCountries(class QMap<class QString, int> &)
	?getCityGroupIdByName@TimezoneClient@@QAEHABVQString@@@Z @ 31 NONAME ; int TimezoneClient::getCityGroupIdByName(class QString const &)
	?checkForDstChange@TimezoneClient@@QAE_NAAUAlarmInfo@@@Z @ 32 NONAME ; bool TimezoneClient::checkForDstChange(struct AlarmInfo &)
	?getCitiesForCountry@TimezoneClient@@QAEXHAAV?$QMap@VQString@@H@@@Z @ 33 NONAME ; void TimezoneClient::getCitiesForCountry(int, class QMap<class QString, int> &)
	?isDSTOnL@TimezoneClient@@QAE_NH@Z @ 34 NONAME ; bool TimezoneClient::isDSTOnL(int)
	?timechanged@TimezoneClient@@IAEXXZ @ 35 NONAME ; void TimezoneClient::timechanged(void)
	??1TimezoneClient@@UAE@XZ @ 36 NONAME ; TimezoneClient::~TimezoneClient(void)
	?saveLocations@TimezoneClient@@QAEXABV?$QList@ULocationInfo@@@@@Z @ 37 NONAME ; void TimezoneClient::saveLocations(class QList<struct LocationInfo> const &)
	?getLocationInfo@TimezoneClient@@QAEXHHAAULocationInfo@@@Z @ 38 NONAME ; void TimezoneClient::getLocationInfo(int, int, struct LocationInfo &)
	?qt_metacall@TimezoneClient@@UAEHW4Call@QMetaObject@@HPAPAX@Z @ 39 NONAME ; int TimezoneClient::qt_metacall(enum QMetaObject::Call, int, void * *)
	?addCity@TimezoneClient@@QAE?AULocationInfo@@HAAVQString@@H@Z @ 40 NONAME ; struct LocationInfo TimezoneClient::addCity(int, class QString &, int)
	?getAllTimeZoneOffsets@TimezoneClient@@QAE?AV?$QList@H@@XZ @ 41 NONAME ; class QList<int> TimezoneClient::getAllTimeZoneOffsets(void)
	?getCountriesForUTCOffset@TimezoneClient@@QAE?AV?$QList@ULocationInfo@@@@H@Z @ 42 NONAME ; class QList<struct LocationInfo> TimezoneClient::getCountriesForUTCOffset(int)
	?getAllTimeZoneIds@TimezoneClient@@QAE?AV?$QList@H@@XZ @ 43 NONAME ; class QList<int> TimezoneClient::getAllTimeZoneIds(void)

