EXPORTS
	_ZN13CCalenSetting10SetToolbarEi @ 1 NONAME
	_ZN13CCalenSetting12SetWeekTitleE15TCalenWeekTitle @ 2 NONAME
	_ZN13CCalenSetting13SetSnoozeTimeEi @ 3 NONAME
	_ZN13CCalenSetting13SetWeekFormatE4TDay @ 4 NONAME
	_ZN13CCalenSetting14SetDefaultViewE4TUid @ 5 NONAME
	_ZN13CCalenSetting16SetPluginStatusLE4TUidi @ 6 NONAME
	_ZN13CCalenSetting17UpdatePluginListLER26CCalenCustomisationManager @ 7 NONAME
	_ZN13CCalenSetting18PluginAvailabilityEv @ 8 NONAME
	_ZN13CCalenSetting5LoadLEv @ 9 NONAME
	_ZN13CCalenSetting7ReleaseEv @ 10 NONAME
	_ZN13CCalenSetting7ToolbarEv @ 11 NONAME
	_ZN13CCalenSetting9InstanceLEv @ 12 NONAME
	_ZN25CCalenSettingsUiContainer14UpdateListBoxLEv @ 13 NONAME
	_ZN25CCalenSettingsUiContainer17ConstructListBoxLEv @ 14 NONAME
	_ZN25CCalenSettingsUiContainer23HandleListBoxSelectionLEiRi @ 15 NONAME
	_ZN25CCalenSettingsUiContainer4NewLEP11CCoeControlR23CAknSettingStyleListBoxR16CCalenGlobalDataR26CCalenCustomisationManager @ 16 NONAME
	_ZNK13CCalenSetting10SnoozeTimeEv @ 17 NONAME
	_ZNK13CCalenSetting10WeekFormatEv @ 18 NONAME
	_ZNK13CCalenSetting11DefaultViewEv @ 19 NONAME
	_ZNK13CCalenSetting5SaveLEv @ 20 NONAME
	_ZNK13CCalenSetting9WeekTitleEv @ 21 NONAME
	_ZNK25CCalenSettingsUiContainer16CurrentFeatureIdEv @ 22 NONAME
	_ZTI23CCalenNestedSettingItem @ 23 NONAME
	_ZTI24CCalenBooleanSettingItem @ 24 NONAME
	_ZTI25CCalenCheckboxSettingItem @ 25 NONAME
	_ZTI25CCalenNestedSettingDialog @ 26 NONAME
	_ZTI25CCalenSettingsUiContainer @ 27 NONAME
	_ZTV23CCalenNestedSettingItem @ 28 NONAME
	_ZTV24CCalenBooleanSettingItem @ 29 NONAME
	_ZTV25CCalenCheckboxSettingItem @ 30 NONAME
	_ZTV25CCalenNestedSettingDialog @ 31 NONAME
	_ZTV25CCalenSettingsUiContainer @ 32 NONAME

