EXPORTS
	_ZN10NotesModel11qt_metacallEN11QMetaObject4CallEiPPv @ 1 NONAME
	_ZN10NotesModel11qt_metacastEPKc @ 2 NONAME
	_ZN10NotesModel11sourceModelEv @ 3 NONAME
	_ZN10NotesModel15addEntryToModelEm @ 4 NONAME
	_ZN10NotesModel16staticMetaObjectE @ 5 NONAME DATA 16
	_ZN10NotesModel17insertNoteToModelER11QModelIndexm @ 6 NONAME
	_ZN10NotesModel17updateSourceModelEm @ 7 NONAME
	_ZN10NotesModel18appendNotesToModelER5QListImE @ 8 NONAME
	_ZN10NotesModel18modifyEntryInModelEmi @ 9 NONAME
	_ZN10NotesModel19getStaticMetaObjectEv @ 10 NONAME
	_ZN10NotesModel19populateSourceModelE5QListImE @ 11 NONAME
	_ZN10NotesModel19populateSourceModelEv @ 12 NONAME
	_ZN10NotesModel20removeEntryFromModelEm @ 13 NONAME
	_ZN10NotesModel21insertCompTodoToModelER11QModelIndexm @ 14 NONAME
	_ZN10NotesModel22appendCompTodosToModelER5QListImE @ 15 NONAME
	_ZN10NotesModel23insertInCompTodoToModelER11QModelIndexm @ 16 NONAME
	_ZN10NotesModel24appendInCompTodosToModelER5QListImE @ 17 NONAME
	_ZN10NotesModel8rowAddedE11QModelIndex @ 18 NONAME
	_ZN10NotesModelC1EP10AgendaUtilP7QObject @ 19 NONAME
	_ZN10NotesModelC2EP10AgendaUtilP7QObject @ 20 NONAME
	_ZN10NotesModelD0Ev @ 21 NONAME
	_ZN10NotesModelD1Ev @ 22 NONAME
	_ZN10NotesModelD2Ev @ 23 NONAME
	_ZN25NotesSortFilterProxyModel11qt_metacallEN11QMetaObject4CallEiPPv @ 24 NONAME
	_ZN25NotesSortFilterProxyModel11qt_metacastEPKc @ 25 NONAME
	_ZN25NotesSortFilterProxyModel16staticMetaObjectE @ 26 NONAME DATA 16
	_ZN25NotesSortFilterProxyModel19getStaticMetaObjectEv @ 27 NONAME
	_ZN25NotesSortFilterProxyModelC1ER10AgendaUtilP7QObject @ 28 NONAME
	_ZN25NotesSortFilterProxyModelC2ER10AgendaUtilP7QObject @ 29 NONAME
	_ZN25NotesSortFilterProxyModelD0Ev @ 30 NONAME
	_ZN25NotesSortFilterProxyModelD1Ev @ 31 NONAME
	_ZN25NotesSortFilterProxyModelD2Ev @ 32 NONAME
	_ZNK10NotesModel10metaObjectEv @ 33 NONAME
	_ZNK25NotesSortFilterProxyModel10metaObjectEv @ 34 NONAME
	_ZNK25NotesSortFilterProxyModel16filterAcceptsRowEiRK11QModelIndex @ 35 NONAME
	_ZNK25NotesSortFilterProxyModel8lessThanERK11QModelIndexS2_ @ 36 NONAME
	_ZTI10NotesModel @ 37 NONAME
	_ZTI25NotesSortFilterProxyModel @ 38 NONAME
	_ZTV10NotesModel @ 39 NONAME
	_ZTV25NotesSortFilterProxyModel @ 40 NONAME

