EXPORTS
	?Size@CCalenAttachmentInfo@@QBEHXZ @ 1 NONAME ; int CCalenAttachmentInfo::Size(void) const
	?FindEventsForDayRangeL@CalenAgendaUtils@@SAXPAVCCalInstanceView@@AAV?$RPointerArray@VCCalInstance@@@@ABIABVTTime@@3@Z @ 2 NONAME ; void CalenAgendaUtils::FindEventsForDayRangeL(class CCalInstanceView *, class RPointerArray<class CCalInstance> &, unsigned int const &, class TTime const &, class TTime const &)
	?EntryType@CCalenEntryUtil@@QBEABW4TType@CCalEntry@@XZ @ 3 NONAME ; enum CCalEntry::TType const & CCalenEntryUtil::EntryType(void) const
	?WeekNameByActiveTimeL@CCalenStatusPaneUtils@@QAEPAVHBufC16@@ABVTTime@@W4TDay@@W4TCalenWeekTitle@@@Z @ 4 NONAME ; class HBufC16 * CCalenStatusPaneUtils::WeekNameByActiveTimeL(class TTime const &, enum TDay, enum TCalenWeekTitle)
	?SystemFileName@CCalenAttachmentInfo@@QBEABV?$TBuf@$0BAA@@@XZ @ 5 NONAME ; class TBuf<256> const & CCalenAttachmentInfo::SystemFileName(void) const
	?SetNonRepeatingL@CCalenEntryUtil@@QAEXXZ @ 6 NONAME ; void CCalenEntryUtil::SetNonRepeatingL(void)
	?SetAlarmOnL@CCalenEntryUtil@@QAEXABVTTime@@@Z @ 7 NONAME ; void CCalenEntryUtil::SetAlarmOnL(class TTime const &)
	?DurationL@CalenAgendaUtils@@SA?AVTTimeIntervalMinutes@@ABVCCalEntry@@@Z @ 8 NONAME ; class TTimeIntervalMinutes CalenAgendaUtils::DurationL(class CCalEntry const &)
	?GetAttachmentFileL@CCalenAttachmentModel@@QAE?AVRFile@@H@Z @ 9 NONAME ; class RFile CCalenAttachmentModel::GetAttachmentFileL(int)
	?IsValidDay@CalenDateUtils@@SAHABVTTime@@@Z @ 10 NONAME ; int CalenDateUtils::IsValidDay(class TTime const &)
	?ShowDeleteConfirmationQueryL@CalenActionUiUtils@@SAHW4TDeleteConfirmationType@1@H@Z @ 11 NONAME ; int CalenActionUiUtils::ShowDeleteConfirmationQueryL(enum CalenActionUiUtils::TDeleteConfirmationType, int)
	?NewL@CCalenAttachmentInfo@@SAPAV1@AAVCCalenAttachmentModel@@ABV?$TBuf@$0BAA@@@1HHABVTDataType@@W4TCalenAttachmentStoreType@1@@Z @ 12 NONAME ; class CCalenAttachmentInfo * CCalenAttachmentInfo::NewL(class CCalenAttachmentModel &, class TBuf<256> const &, class TBuf<256> const &, int, int, class TDataType const &, enum CCalenAttachmentInfo::TCalenAttachmentStoreType)
	?CreateEntryIdListForDayL@CalenAgendaUtils@@SAXAAV?$RPointerArray@VCCalInstance@@@@PAVCCalInstanceView@@ABVTTime@@HH@Z @ 13 NONAME ; void CalenAgendaUtils::CreateEntryIdListForDayL(class RPointerArray<class CCalInstance> &, class CCalInstanceView *, class TTime const &, int, int)
	?IsFetched@CCalenAttachmentInfo@@QBEHXZ @ 14 NONAME ; int CCalenAttachmentInfo::IsFetched(void) const
	?SetDescriptionTransferOwnershipL@CCalenEntryUtil@@QAEXPAVHBufC16@@@Z @ 15 NONAME ; void CCalenEntryUtil::SetDescriptionTransferOwnershipL(class HBufC16 *)
	?SaveAttachmentL@CCalenAttachmentUtils@@SAHAAVRFile@@AAVMAknServerAppExitObserver@@@Z @ 16 NONAME ; int CCalenAttachmentUtils::SaveAttachmentL(class RFile &, class MAknServerAppExitObserver &)
	?GetRdatesL@CCalenEntryUtil@@QAE?BV?$RArray@VTCalTime@@@@XZ @ 17 NONAME ; class RArray<class TCalTime> const CCalenEntryUtil::GetRdatesL(void)
	?SetStartDateTimeL@CCalenEntryUtil@@QAEXABVTTime@@@Z @ 18 NONAME ; void CCalenEntryUtil::SetStartDateTimeL(class TTime const &)
	?SetSummaryL@CCalenEntryUtil@@QAEXABVTDesC16@@@Z @ 19 NONAME ; void CCalenEntryUtil::SetSummaryL(class TDesC16 const &)
	?RoundToPreviousHour@CalenDateUtils@@SA?AVTTime@@ABV2@@Z @ 20 NONAME ; class TTime CalenDateUtils::RoundToPreviousHour(class TTime const &)
	?SetRepeatUntilDateTimeL@CCalenEntryUtil@@QAEXABVTTime@@@Z @ 21 NONAME ; void CCalenEntryUtil::SetRepeatUntilDateTimeL(class TTime const &)
	?SetAllDayEvent@CCalenEntryUtil@@QAEXH@Z @ 22 NONAME ; void CCalenEntryUtil::SetAllDayEvent(int)
	??0CCalenNaviLabel@@QAE@XZ @ 23 NONAME ; CCalenNaviLabel::CCalenNaviLabel(void)
	?SetDescriptionL@CCalenEntryUtil@@QAEXABVTDesC16@@@Z @ 24 NONAME ; void CCalenEntryUtil::SetDescriptionL(class TDesC16 const &)
	?DataType@CCalenAttachmentInfo@@QBEABVTDataType@@XZ @ 25 NONAME ; class TDataType const & CCalenAttachmentInfo::DataType(void) const
	?ShowLocationAppendOrReplaceL@CCalenLocationUtil@@SAHAAV?$RPointerArray@VHBufC16@@@@@Z @ 26 NONAME ; int CCalenLocationUtil::ShowLocationAppendOrReplaceL(class RPointerArray<class HBufC16> &)
	?EndDateTime@CCalenEntryUtil@@QBEABVTTime@@XZ @ 27 NONAME ; class TTime const & CCalenEntryUtil::EndDateTime(void) const
	?SizeString@CCalenAttachmentInfo@@QBEPAVHBufC16@@XZ @ 28 NONAME ; class HBufC16 * CCalenAttachmentInfo::SizeString(void) const
	?RemoveEntriesEndingAtMidnightL@CalenAgendaUtils@@SAXAAV?$RPointerArray@VCCalInstance@@@@ABVTTime@@@Z @ 29 NONAME ; void CalenAgendaUtils::RemoveEntriesEndingAtMidnightL(class RPointerArray<class CCalInstance> &, class TTime const &)
	?Status@CCalenEntryUtil@@QBEABW4TStatus@CCalEntry@@XZ @ 30 NONAME ; enum CCalEntry::TStatus const & CCalenEntryUtil::Status(void) const
	?AddAttachmentL@CCalenAttachmentModel@@QAEXABVTDesC16@@0HHABVTDataType@@@Z @ 31 NONAME ; void CCalenAttachmentModel::AddAttachmentL(class TDesC16 const &, class TDesC16 const &, int, int, class TDataType const &)
	?OnSameDay@CalenDateUtils@@SAHABVTTime@@0@Z @ 32 NONAME ; int CalenDateUtils::OnSameDay(class TTime const &, class TTime const &)
	?OpenAttachmentL@CCalenAttachmentUtils@@SAXAAVRFile@@AAVMAknServerAppExitObserver@@@Z @ 33 NONAME ; void CCalenAttachmentUtils::OpenAttachmentL(class RFile &, class MAknServerAppExitObserver &)
	?LoadResourcesL@CCalenAttachmentModel@@QAEXXZ @ 34 NONAME ; void CCalenAttachmentModel::LoadResourcesL(void)
	?RoundToPreviousHour@CalenDateUtils@@SA?AVTTimeIntervalMinutes@@ABV2@@Z @ 35 NONAME ; class TTimeIntervalMinutes CalenDateUtils::RoundToPreviousHour(class TTimeIntervalMinutes const &)
	?RefreshStatusPane@CCalenStatusPaneUtils@@QAEXXZ @ 36 NONAME ; void CCalenStatusPaneUtils::RefreshStatusPane(void)
	?SetAlarmOffL@CCalenEntryUtil@@QAEXXZ @ 37 NONAME ; void CCalenEntryUtil::SetAlarmOffL(void)
	?SetEndDateTimeL@CCalenEntryUtil@@QAEXABVTTime@@@Z @ 38 NONAME ; void CCalenEntryUtil::SetEndDateTimeL(class TTime const &)
	?SetFetched@CCalenAttachmentInfo@@QAEXH@Z @ 39 NONAME ; void CCalenAttachmentInfo::SetFetched(int)
	?EntryTimeL@CalenAgendaUtils@@SA?AVTTime@@ABVCCalEntry@@@Z @ 40 NONAME ; class TTime CalenAgendaUtils::EntryTimeL(class CCalEntry const &)
	?GetMimeType@CCalenAttachmentUtils@@SA?AVTDataType@@VRFile@@@Z @ 41 NONAME ; class TDataType CCalenAttachmentUtils::GetMimeType(class RFile)
	?SetAttachmentCount@CCalenEntryUtil@@QAEXH@Z @ 42 NONAME ; void CCalenEntryUtil::SetAttachmentCount(int)
	?SetAlarmDateTimeL@CCalenEntryUtil@@QAEXABVTTime@@@Z @ 43 NONAME ; void CCalenEntryUtil::SetAlarmDateTimeL(class TTime const &)
	?HandlePointerEventL@CCalenNaviLabel@@UAEXABUTPointerEvent@@@Z @ 44 NONAME ; void CCalenNaviLabel::HandlePointerEventL(struct TPointerEvent const &)
	??1CCalenNaviLabel@@UAE@XZ @ 45 NONAME ; CCalenNaviLabel::~CCalenNaviLabel(void)
	?SetPriorityL@CCalenEntryUtil@@QAEXW4TTodoPriority@1@@Z @ 46 NONAME ; void CCalenEntryUtil::SetPriorityL(enum CCalenEntryUtil::TTodoPriority)
	?StartDateTime@CCalenEntryUtil@@QBEABVTTime@@XZ @ 47 NONAME ; class TTime const & CCalenEntryUtil::StartDateTime(void) const
	?FindPossibleInstanceL@CalenActionUiUtils@@SAPAVCCalInstance@@ABVTCalenInstanceId@@AAVCCalInstanceView@@@Z @ 48 NONAME ; class CCalInstance * CalenActionUiUtils::FindPossibleInstanceL(class TCalenInstanceId const &, class CCalInstanceView &)
	?AttachmentInfoAt@CCalenAttachmentModel@@QBEAAVCCalenAttachmentInfo@@H@Z @ 49 NONAME ; class CCalenAttachmentInfo & CCalenAttachmentModel::AttachmentInfoAt(int) const
	?IsTimedEntryL@CalenAgendaUtils@@SAHW4TType@CCalEntry@@@Z @ 50 NONAME ; int CalenAgendaUtils::IsTimedEntryL(enum CCalEntry::TType)
	?ShowNaviPaneL@CCalenStatusPaneUtils@@QAEPAVCAknNavigationDecorator@@ABVTTime@@@Z @ 51 NONAME ; class CAknNavigationDecorator * CCalenStatusPaneUtils::ShowNaviPaneL(class TTime const &)
	?CheckForAlldayEventL@CCalenEntryUtil@@QAEHVTTime@@0@Z @ 52 NONAME ; int CCalenEntryUtil::CheckForAlldayEventL(class TTime, class TTime)
	?SetEventDateL@CCalenEntryUtil@@QAEXABVTTime@@@Z @ 53 NONAME ; void CCalenEntryUtil::SetEventDateL(class TTime const &)
	?Priority@CCalenEntryUtil@@QBE?AW4TTodoPriority@1@XZ @ 54 NONAME ; enum CCalenEntryUtil::TTodoPriority CCalenEntryUtil::Priority(void) const
	?AlarmDateTime@CCalenEntryUtil@@QBEABVTTime@@XZ @ 55 NONAME ; class TTime const & CCalenEntryUtil::AlarmDateTime(void) const
	??1CCalenTitlePane@@UAE@XZ @ 56 NONAME ; CCalenTitlePane::~CCalenTitlePane(void)
	?GetAlarmDateTimeL@CalenNoteDataUtil@@SAHABVCCalEntry@@AAVTTime@@@Z @ 57 NONAME ; int CalenNoteDataUtil::GetAlarmDateTimeL(class CCalEntry const &, class TTime &)
	?TimeOfDay@CalenDateUtils@@SA?AVTTimeIntervalMinutes@@ABVTTime@@@Z @ 58 NONAME ; class TTimeIntervalMinutes CalenDateUtils::TimeOfDay(class TTime const &)
	?LimitToValidTime@CalenDateUtils@@SA?AVTTime@@ABV2@@Z @ 59 NONAME ; class TTime CalenDateUtils::LimitToValidTime(class TTime const &)
	?TimeRangesIntersect@CalenDateUtils@@SAHABVTTime@@000@Z @ 60 NONAME ; int CalenDateUtils::TimeRangesIntersect(class TTime const &, class TTime const &, class TTime const &, class TTime const &)
	?RepeatIndexL@CalenNoteDataUtil@@SA?AW4TCalenRepeatIndex@@ABVCCalEntry@@@Z @ 61 NONAME ; enum TCalenRepeatIndex CalenNoteDataUtil::RepeatIndexL(class CCalEntry const &)
	?ShowRepeatTypeQueryL@CalenNoteDataUtil@@SAHAAW4TRecurrenceRange@CalCommon@@W4TRepeatQueryType@1@@Z @ 62 NONAME ; int CalenNoteDataUtil::ShowRepeatTypeQueryL(enum CalCommon::TRecurrenceRange &, enum CalenNoteDataUtil::TRepeatQueryType)
	??1CCalenStatusPaneUtils@@UAE@XZ @ 63 NONAME ; CCalenStatusPaneUtils::~CCalenStatusPaneUtils(void)
	?StoreType@CCalenAttachmentInfo@@QBE?AW4TCalenAttachmentStoreType@1@XZ @ 64 NONAME ; enum CCalenAttachmentInfo::TCalenAttachmentStoreType CCalenAttachmentInfo::StoreType(void) const
	?ShowNewNoteQueryL@CalenActionUiUtils@@SAHAAPAVCDesC16ArrayFlat@@AAPAV?$CArrayFixFlat@H@@@Z @ 65 NONAME ; int CalenActionUiUtils::ShowNewNoteQueryL(class CDesC16ArrayFlat * &, class CArrayFixFlat<int> * &)
	?Now@CalenDateUtils@@SA?AVTTime@@XZ @ 66 NONAME ; class TTime CalenDateUtils::Now(void)
	?AttachmentNamesL@CCalenEntryUtil@@QAEXAAV?$RPointerArray@VHBufC16@@@@@Z @ 67 NONAME ; void CCalenEntryUtil::AttachmentNamesL(class RPointerArray<class HBufC16> &)
	?BitmapForFileL@CCalenAttachmentModel@@QAEPAVCGulIcon@@AAVCCalenAttachmentInfo@@@Z @ 68 NONAME ; class CGulIcon * CCalenAttachmentModel::BitmapForFileL(class CCalenAttachmentInfo &)
	?Icon@CCalenAttachmentInfo@@QBEPAVCGulIcon@@XZ @ 69 NONAME ; class CGulIcon * CCalenAttachmentInfo::Icon(void) const
	?IsMapProviderAvailableL@CCalenLocationUtil@@SAHXZ @ 70 NONAME ; int CCalenLocationUtil::IsMapProviderAvailableL(void)
	?IsRepeating@CCalenEntryUtil@@QBEHXZ @ 71 NONAME ; int CCalenEntryUtil::IsRepeating(void) const
	?GetDayRangeL@CalenDateUtils@@SAXABVTTime@@0AAVTCalTimeRange@CalCommon@@@Z @ 72 NONAME ; void CalenDateUtils::GetDayRangeL(class TTime const &, class TTime const &, class CalCommon::TCalTimeRange &)
	?DateQueryL@CalenActionUiUtils@@SAHAAVTTime@@H@Z @ 73 NONAME ; int CalenActionUiUtils::DateQueryL(class TTime &, int)
	?AddAttachmentL@CCalenAttachmentModel@@QAEXABVTDesC16@@0@Z @ 74 NONAME ; void CCalenAttachmentModel::AddAttachmentL(class TDesC16 const &, class TDesC16 const &)
	?GetSummaryLocationTextL@CalenViewUtils@@SAXAAVCCalEntry@@AAVTDes16@@H@Z @ 75 NONAME ; void CalenViewUtils::GetSummaryLocationTextL(class CCalEntry &, class TDes16 &, int)
	?NumberOfItems@CCalenAttachmentModel@@QBEHXZ @ 76 NONAME ; int CCalenAttachmentModel::NumberOfItems(void) const
	?Reset@CCalenAttachmentModel@@QAEXXZ @ 77 NONAME ; void CCalenAttachmentModel::Reset(void)
	?SetFileName@CCalenAttachmentInfo@@QAEXABV?$TBuf@$0BAA@@@@Z @ 78 NONAME ; void CCalenAttachmentInfo::SetFileName(class TBuf<256> const &)
	?DefaultTime@CalenDateUtils@@SA?AVTTime@@ABV2@@Z @ 79 NONAME ; class TTime CalenDateUtils::DefaultTime(class TTime const &)
	?SetTitleText@CCalenStatusPaneUtils@@QAEXPAVHBufC16@@@Z @ 80 NONAME ; void CCalenStatusPaneUtils::SetTitleText(class HBufC16 *)
	?IsEmptyText@CalenAgendaUtils@@SAHABVTDesC16@@@Z @ 81 NONAME ; int CalenAgendaUtils::IsEmptyText(class TDesC16 const &)
	?DateQueryL@CalenViewUtils@@SAHAAVTTime@@H@Z @ 82 NONAME ; int CalenViewUtils::DateQueryL(class TTime &, int)
	?IsAlarmActivated@CCalenEntryUtil@@QBEHXZ @ 83 NONAME ; int CCalenEntryUtil::IsAlarmActivated(void) const
	?NewAndSwapL@CCalenTitlePane@@SAPAV1@PAVCEikStatusPane@@@Z @ 84 NONAME ; class CCalenTitlePane * CCalenTitlePane::NewAndSwapL(class CEikStatusPane *)
	?FetchAnyFileL@CCalenAttachmentUtils@@SAHAAV?$TBuf@$0BAA@@@PAVMAknFileSelectionObserver@@PAVMAknFileFilter@@@Z @ 85 NONAME ; int CCalenAttachmentUtils::FetchAnyFileL(class TBuf<256> &, class MAknFileSelectionObserver *, class MAknFileFilter *)
	?RepeatType@CCalenEntryUtil@@QBE?AW4TCalenRepeatIndex@@XZ @ 86 NONAME ; enum TCalenRepeatIndex CCalenEntryUtil::RepeatType(void) const
	?GetAttachmentListL@CCalenAttachmentModel@@QAEXAAV?$RPointerArray@VCCalenAttachmentInfo@@@@@Z @ 87 NONAME ; void CCalenAttachmentModel::GetAttachmentListL(class RPointerArray<class CCalenAttachmentInfo> &)
	?MonthNameByActiveTime@CCalenStatusPaneUtils@@QAEXAAVTDes16@@ABVTTime@@@Z @ 88 NONAME ; void CCalenStatusPaneUtils::MonthNameByActiveTime(class TDes16 &, class TTime const &)
	?IsRepeatingL@CalenAgendaUtils@@SAHABVCCalEntry@@@Z @ 89 NONAME ; int CalenAgendaUtils::IsRepeatingL(class CCalEntry const &)
	?OnSameMonth@CalenDateUtils@@SAHABVTTime@@0@Z @ 90 NONAME ; int CalenDateUtils::OnSameMonth(class TTime const &, class TTime const &)
	?ShowRepeatTypeQueryL@CalenActionUiUtils@@SAHAAW4TRecurrenceRange@CalCommon@@W4TRepeatQueryType@1@@Z @ 91 NONAME ; int CalenActionUiUtils::ShowRepeatTypeQueryL(enum CalCommon::TRecurrenceRange &, enum CalenActionUiUtils::TRepeatQueryType)
	?SetLocationL@CCalenEntryUtil@@QAEXABVTDesC16@@@Z @ 92 NONAME ; void CCalenEntryUtil::SetLocationL(class TDesC16 const &)
	?IsAlldayEventL@CalenViewUtils@@SAHABVCCalInstance@@@Z @ 93 NONAME ; int CalenViewUtils::IsAlldayEventL(class CCalInstance const &)
	?IsNullTimeL@CalenDateUtils@@SAHAAVTCalTime@@@Z @ 94 NONAME ; int CalenDateUtils::IsNullTimeL(class TCalTime &)
	?MaxTime@CalenDateUtils@@SA?AVTTime@@XZ @ 95 NONAME ; class TTime CalenDateUtils::MaxTime(void)
	?SortInstanceList@CalenAgendaUtils@@SAXAAV?$RPointerArray@VCCalInstance@@@@@Z @ 96 NONAME ; void CalenAgendaUtils::SortInstanceList(class RPointerArray<class CCalInstance> &)
	?IsOnToday@CalenDateUtils@@SAHABVTTime@@@Z @ 97 NONAME ; int CalenDateUtils::IsOnToday(class TTime const &)
	?SetRepeatingL@CCalenEntryUtil@@QAEXW4TCalenRepeatIndex@@ABVTTime@@@Z @ 98 NONAME ; void CCalenEntryUtil::SetRepeatingL(enum TCalenRepeatIndex, class TTime const &)
	?FetchFileL@CCalenAttachmentUtils@@SAHW4TCalenAttachmentFileType@1@AAVCDesC16Array@@PAVCAiwGenericParamList@@HHPAVMMGFetchVerifier@@@Z @ 99 NONAME ; int CCalenAttachmentUtils::FetchFileL(enum CCalenAttachmentUtils::TCalenAttachmentFileType, class CDesC16Array &, class CAiwGenericParamList *, int, int, class MMGFetchVerifier *)
	?SetEntryType@CCalenEntryUtil@@QAEXW4TType@CCalEntry@@@Z @ 100 NONAME ; void CCalenEntryUtil::SetEntryType(enum CCalEntry::TType)
	?FileName@CCalenAttachmentInfo@@QBEABV?$TBuf@$0BAA@@@XZ @ 101 NONAME ; class TBuf<256> const & CCalenAttachmentInfo::FileName(void) const
	?IsAllDayEvent@CCalenEntryUtil@@QAEHXZ @ 102 NONAME ; int CCalenEntryUtil::IsAllDayEvent(void)
	?SetObserver@CCalenAttachmentModel@@QAEXPAVMCalenAttachmentModelObserver@@@Z @ 103 NONAME ; void CCalenAttachmentModel::SetObserver(class MCalenAttachmentModelObserver *)
	?GetCalenEditorTempPath@CCalenAttachmentUtils@@SAXAAV?$TBuf@$0BAA@@@PBVTDesC16@@@Z @ 104 NONAME ; void CCalenAttachmentUtils::GetCalenEditorTempPath(class TBuf<256> &, class TDesC16 const *)
	?GetFileSizeL@CCalenAttachmentUtils@@SAHABVTDesC16@@@Z @ 105 NONAME ; int CCalenAttachmentUtils::GetFileSizeL(class TDesC16 const &)
	?ShowDateOutOfRangeErrorNoteL@CalenViewUtils@@SAXXZ @ 106 NONAME ; void CalenViewUtils::ShowDateOutOfRangeErrorNoteL(void)
	?UnderLineTitleText@CCalenStatusPaneUtils@@QAEXH@Z @ 107 NONAME ; void CCalenStatusPaneUtils::UnderLineTitleText(int)
	?Description@CCalenEntryUtil@@QBEABVTDesC16@@XZ @ 108 NONAME ; class TDesC16 const & CCalenEntryUtil::Description(void) const
	?DeleteAttachment@CCalenAttachmentModel@@QAEHH@Z @ 109 NONAME ; int CCalenAttachmentModel::DeleteAttachment(int)
	?DayNameByActiveTime@CCalenStatusPaneUtils@@QAEXAAVTDes16@@ABVTTime@@@Z @ 110 NONAME ; void CCalenStatusPaneUtils::DayNameByActiveTime(class TDes16 &, class TTime const &)
	?DisplayTimeOnDay@CalenDateUtils@@SA?AVTTime@@ABV2@0@Z @ 111 NONAME ; class TTime CalenDateUtils::DisplayTimeOnDay(class TTime const &, class TTime const &)
	?CheckForExistingAttachmentsL@CCalenAttachmentModel@@QAEXPAVCCalEntry@@@Z @ 112 NONAME ; void CCalenAttachmentModel::CheckForExistingAttachmentsL(class CCalEntry *)
	?SetTitleTextL@CCalenStatusPaneUtils@@QAEXAAVTDes16@@@Z @ 113 NONAME ; void CCalenStatusPaneUtils::SetTitleTextL(class TDes16 &)
	?Today@CalenDateUtils@@SA?AVTTime@@XZ @ 114 NONAME ; class TTime CalenDateUtils::Today(void)
	?Summary@CCalenEntryUtil@@QBEABVTDesC16@@XZ @ 115 NONAME ; class TDesC16 const & CCalenEntryUtil::Summary(void) const
	?IsWorkdaysRepeatingL@CalenNoteDataUtil@@SAHVTCalRRule@@@Z @ 116 NONAME ; int CalenNoteDataUtil::IsWorkdaysRepeatingL(class TCalRRule)
	?AttachmentCount@CCalenEntryUtil@@QBEHXZ @ 117 NONAME ; int CCalenEntryUtil::AttachmentCount(void) const
	?FindTodosForDayRangeL@CalenAgendaUtils@@SAXPAVCCalInstanceView@@AAV?$RPointerArray@VCCalInstance@@@@ABVTTime@@2@Z @ 118 NONAME ; void CalenAgendaUtils::FindTodosForDayRangeL(class CCalInstanceView *, class RPointerArray<class CCalInstance> &, class TTime const &, class TTime const &)
	?SetSynchTypeL@CCalenEntryUtil@@QAEXW4TSynchType@1@@Z @ 119 NONAME ; void CCalenEntryUtil::SetSynchTypeL(enum CCalenEntryUtil::TSynchType)
	?MinTime@CalenDateUtils@@SA?AVTTime@@XZ @ 120 NONAME ; class TTime CalenDateUtils::MinTime(void)
	?EndsAtStartOfDayL@CalenAgendaUtils@@SAHPAVCCalInstance@@ABVTTime@@@Z @ 121 NONAME ; int CalenAgendaUtils::EndsAtStartOfDayL(class CCalInstance *, class TTime const &)
	?BeginningOfDay@CalenDateUtils@@SA?AVTTime@@ABV2@@Z @ 122 NONAME ; class TTime CalenDateUtils::BeginningOfDay(class TTime const &)
	?HideNaviPane@CCalenStatusPaneUtils@@QAEXXZ @ 123 NONAME ; void CCalenStatusPaneUtils::HideNaviPane(void)
	?GetMimeTypeL@CCalenAttachmentUtils@@SA?AVTDataType@@ABVTDesC16@@@Z @ 124 NONAME ; class TDataType CCalenAttachmentUtils::GetMimeTypeL(class TDesC16 const &)
	?NewL@CCalenStatusPaneUtils@@SAPAV1@PAVCEikStatusPane@@@Z @ 125 NONAME ; class CCalenStatusPaneUtils * CCalenStatusPaneUtils::NewL(class CEikStatusPane *)
	?EventDateTime@CCalenEntryUtil@@QBEABVTTime@@XZ @ 126 NONAME ; class TTime const & CCalenEntryUtil::EventDateTime(void) const
	?SortPopupInstanceList@CalenAgendaUtils@@SAXAAV?$RPointerArray@VCCalInstance@@@@@Z @ 127 NONAME ; void CalenAgendaUtils::SortPopupInstanceList(class RPointerArray<class CCalInstance> &)
	?SetLabelObserver@CCalenNaviLabel@@QAEXPAVMCCalenNaviLabelObserver@@@Z @ 128 NONAME ; void CCalenNaviLabel::SetLabelObserver(class MCCalenNaviLabelObserver *)
	?NewL@CCalenAttachmentModel@@SAPAV1@XZ @ 129 NONAME ; class CCalenAttachmentModel * CCalenAttachmentModel::NewL(void)
	?RepeatUntilDateTime@CCalenEntryUtil@@QBEABVTTime@@XZ @ 130 NONAME ; class TTime const & CCalenEntryUtil::RepeatUntilDateTime(void) const
	?SetToDoCompleteStatusL@CalenActionUiUtils@@SAXAAVCCalEntryView@@PAVCCalEntry@@H@Z @ 131 NONAME ; void CalenActionUiUtils::SetToDoCompleteStatusL(class CCalEntryView &, class CCalEntry *, int)
	?NewL@CCalenEntryUtil@@SAPAV1@AAVCCalEntry@@ABVTCalTime@@@Z @ 132 NONAME ; class CCalenEntryUtil * CCalenEntryUtil::NewL(class CCalEntry &, class TCalTime const &)
	?Location@CCalenEntryUtil@@QBEABVTDesC16@@XZ @ 133 NONAME ; class TDesC16 const & CCalenEntryUtil::Location(void) const
	?SynchType@CCalenEntryUtil@@QBE?AW4TSynchType@1@XZ @ 134 NONAME ; enum CCalenEntryUtil::TSynchType CCalenEntryUtil::SynchType(void) const
	?GetNextAvailableOffsetL@CCalenMultiCalUtil@@SAIXZ @ 135 NONAME ; unsigned int CCalenMultiCalUtil::GetNextAvailableOffsetL(void)
	?GetNextAvailableCalFileL@CCalenMultiCalUtil@@SAPAVHBufC16@@XZ @ 136 NONAME ; class HBufC16 * CCalenMultiCalUtil::GetNextAvailableCalFileL(void)

