EXPORTS
	_ZN16CCalenController10MainWindowEv @ 1 NONAME
	_ZN16CCalenController11ViewManagerEv @ 2 NONAME
	_ZN16CCalenController12InfobarTextLEv @ 3 NONAME
	_ZN16CCalenController12NewServicesLEv @ 4 NONAME
	_ZN16CCalenController12getFirstViewEv @ 5 NONAME
	_ZN16CCalenController13IssueCommandLEi @ 6 NONAME
	_ZN16CCalenController15agendaInterfaceEv @ 7 NONAME
	_ZN16CCalenController17SetDefaultContextEv @ 8 NONAME
	_ZN16CCalenController18GetCommandHandlerLEi @ 9 NONAME
	_ZN16CCalenController19CancelNotificationsEP25MCalenNotificationHandler @ 10 NONAME
	_ZN16CCalenController20CustomisationManagerEv @ 11 NONAME
	_ZN16CCalenController21BroadcastNotificationE18TCalenNotification @ 12 NONAME
	_ZN16CCalenController21ReleaseCustomisationsEv @ 13 NONAME
	_ZN16CCalenController21checkMultipleCreationEv @ 14 NONAME
	_ZN16CCalenController24handleServiceManagerSlotEiRK9QDateTime @ 15 NONAME
	_ZN16CCalenController25RegisterForNotificationsLEP25MCalenNotificationHandler18TCalenNotification @ 16 NONAME
	_ZN16CCalenController25RegisterForNotificationsLEP25MCalenNotificationHandlerR6RArrayI18TCalenNotificationE @ 17 NONAME
	_ZN16CCalenController7InfobarEv @ 18 NONAME
	_ZN16CCalenController7ReleaseEv @ 19 NONAME
	_ZN16CCalenController7contextEv @ 20 NONAME
	_ZN16CCalenController8NotifierEv @ 21 NONAME
	_ZN16CCalenController8ServicesEv @ 22 NONAME
	_ZN16CCalenController9InstanceLEv @ 23 NONAME
	_ZN16CCalenController9OfferMenuEP6HbMenu @ 24 NONAME
	_ZN16CCalenControllerC1Eb @ 25 NONAME
	_ZN16CCalenControllerC2Eb @ 26 NONAME
	_ZN16CCalenControllerD1Ev @ 27 NONAME
	_ZN16CCalenControllerD2Ev @ 28 NONAME
	_ZTI16CCalenController @ 29 NONAME
	_ZTV16CCalenController @ 30 NONAME

