EXPORTS
	_ZN10CCalenSend16SendAsVCalendarLEiR9CCalEntry @ 1 NONAME
	_ZN10CCalenSend20DisplaySendMenuItemLER12CEikMenuPanei @ 2 NONAME
	_ZN10CCalenSend21IsMessagingEditorOpenEv @ 3 NONAME
	_ZN10CCalenSend23DisplaySendCascadeMenuLEv @ 4 NONAME
	_ZN10CCalenSend4NewLEiR11CCalSession @ 5 NONAME
	_ZN10CCalenSend8CanSendLEi @ 6 NONAME
	_ZN10CCalenSendD0Ev @ 7 NONAME
	_ZN10CCalenSendD1Ev @ 8 NONAME
	_ZN10CCalenSendD2Ev @ 9 NONAME
	_ZN16CCalenGlobalData10CalenSendLEv @ 10 NONAME
	_ZN16CCalenGlobalData10EntryViewLEh @ 11 NONAME
	_ZN16CCalenGlobalData10EntryViewLEv @ 12 NONAME
	_ZN16CCalenGlobalData11CalSessionLERK7TDesC16 @ 13 NONAME
	_ZN16CCalenGlobalData11CalSessionLEv @ 14 NONAME
	_ZN16CCalenGlobalData12AddCalendarLEP16CCalCalendarInfo @ 15 NONAME
	_ZN16CCalenGlobalData13InstanceViewLERK6RArrayIiE @ 16 NONAME
	_ZN16CCalenGlobalData13InstanceViewLEv @ 17 NONAME
	_ZN16CCalenGlobalData13InterimUtilsLEv @ 18 NONAME
	_ZN16CCalenGlobalData13QueueKeyEventERK9TKeyEvent10TEventCode @ 19 NONAME
	_ZN16CCalenGlobalData15EntryViewExistsEv @ 20 NONAME
	_ZN16CCalenGlobalData15MRMailboxUtilsLEv @ 21 NONAME
	_ZN16CCalenGlobalData15RemoveCalendarLERK7TDesC16 @ 22 NONAME
	_ZN16CCalenGlobalData15UpdateCalendarLEP16CCalCalendarInfo @ 23 NONAME
	_ZN16CCalenGlobalData17GetQueuedKeyEventER9TKeyEventR10TEventCode @ 24 NONAME
	_ZN16CCalenGlobalData18ResetKeyEventQueueEv @ 25 NONAME
	_ZN16CCalenGlobalData19GetAllCalendarInfoLER13RPointerArrayI16CCalCalendarInfoE @ 26 NONAME
	_ZN16CCalenGlobalData20MeetingRequestUtilsLEv @ 27 NONAME
	_ZN16CCalenGlobalData20RemoveDeadCalendarsLEv @ 28 NONAME
	_ZN16CCalenGlobalData21ConstructFileMappingLEv @ 29 NONAME
	_ZN16CCalenGlobalData21InitializeGlobalDataLEv @ 30 NONAME
	_ZN16CCalenGlobalData29GetCalFileNameForCollectionIdEh @ 31 NONAME
	_ZN16CCalenGlobalData32AttemptToRetrieveDefaultMailboxLERN15CMRMailboxUtils12TMailboxInfoE @ 32 NONAME
	_ZN16CCalenGlobalData4NewLER20MCalProgressCallBackP27MCalenContextChangeObserverP22MCalenDBChangeObserver @ 33 NONAME
	_ZN16CCalenGlobalData7ContextEv @ 34 NONAME
	_ZN16CCalenGlobalData7ReleaseEv @ 35 NONAME
	_ZN16CCalenGlobalData8InstanceEv @ 36 NONAME
	_ZN16CCalenGlobalData9InstanceLER11CCalSession @ 37 NONAME
	_ZN16CCalenGlobalData9InstanceLEv @ 38 NONAME
	_ZTI17CCalenContextImpl @ 39 NONAME
	_ZTV17CCalenContextImpl @ 40 NONAME

