EXPORTS
	?SetPastDays@RCalDavServer@@QAEHABVTDesC16@@VTTimeIntervalDays@@@Z @ 1 NONAME ; int RCalDavServer::SetPastDays(class TDesC16 const &, class TTimeIntervalDays)
	??1CCalDavSession@@UAE@XZ @ 2 NONAME ; CCalDavSession::~CCalDavSession(void)
	?EnabledSync@RCalDavServer@@QAEHABVTDesC16@@AAH@Z @ 3 NONAME ; int RCalDavServer::EnabledSync(class TDesC16 const &, int &)
	?SyncInterval@RCalDavServer@@QAEHABVTDesC16@@AAVTTimeIntervalMinutes@@@Z @ 4 NONAME ; int RCalDavServer::SyncInterval(class TDesC16 const &, class TTimeIntervalMinutes &)
	?Disable@RCalDavServer@@QAEHABVTDesC16@@@Z @ 5 NONAME ; int RCalDavServer::Disable(class TDesC16 const &)
	?SyncAllL@CCalDavSession@@QAEHXZ @ 6 NONAME ; int CCalDavSession::SyncAllL(void)
	?SetUsername@CCalDavSession@@QAEHABVTDesC16@@ABVTDesC8@@@Z @ 7 NONAME ; int CCalDavSession::SetUsername(class TDesC16 const &, class TDesC8 const &)
	?PastDays@RCalDavServer@@QAEHABVTDesC16@@AAVTTimeIntervalDays@@@Z @ 8 NONAME ; int RCalDavServer::PastDays(class TDesC16 const &, class TTimeIntervalDays &)
	?SetUrl@RCalDavServer@@QAEHABVTDesC16@@ABVTDesC8@@@Z @ 9 NONAME ; int RCalDavServer::SetUrl(class TDesC16 const &, class TDesC8 const &)
	?Url@RCalDavServer@@QAEHABVTDesC16@@AAVTDes8@@@Z @ 10 NONAME ; int RCalDavServer::Url(class TDesC16 const &, class TDes8 &)
	?Sync@RCalDavServer@@QAEHABVTDesC16@@@Z @ 11 NONAME ; int RCalDavServer::Sync(class TDesC16 const &)
	?EnabledSync@CCalDavSession@@QAEHABVTDesC16@@AAH@Z @ 12 NONAME ; int CCalDavSession::EnabledSync(class TDesC16 const &, int &)
	?ImmediateSync@RCalDavServer@@QAEHABVTDesC16@@AAH@Z @ 13 NONAME ; int RCalDavServer::ImmediateSync(class TDesC16 const &, int &)
	?Connect@RCalDavServer@@QAEHXZ @ 14 NONAME ; int RCalDavServer::Connect(void)
	?Password@RCalDavServer@@QAEHABVTDesC16@@AAVTDes8@@@Z @ 15 NONAME ; int RCalDavServer::Password(class TDesC16 const &, class TDes8 &)
	?SyncAll@RCalDavServer@@QAEHXZ @ 16 NONAME ; int RCalDavServer::SyncAll(void)
	?SetPastDays@CCalDavSession@@QAEHABVTDesC16@@VTTimeIntervalDays@@@Z @ 17 NONAME ; int CCalDavSession::SetPastDays(class TDesC16 const &, class TTimeIntervalDays)
	?NewLC@CCalDavSession@@SAPAV1@XZ @ 18 NONAME ; class CCalDavSession * CCalDavSession::NewLC(void)
	?SetUrl@CCalDavSession@@QAEHABVTDesC16@@ABVTDesC8@@@Z @ 19 NONAME ; int CCalDavSession::SetUrl(class TDesC16 const &, class TDesC8 const &)
	?SetImmediateSync@CCalDavSession@@QAEHABVTDesC16@@H@Z @ 20 NONAME ; int CCalDavSession::SetImmediateSync(class TDesC16 const &, int)
	?SetSyncInterval@CCalDavSession@@QAEHABVTDesC16@@VTTimeIntervalMinutes@@@Z @ 21 NONAME ; int CCalDavSession::SetSyncInterval(class TDesC16 const &, class TTimeIntervalMinutes)
	?Disable@CCalDavSession@@QAEHABVTDesC16@@@Z @ 22 NONAME ; int CCalDavSession::Disable(class TDesC16 const &)
	??0RCalDavServer@@QAE@XZ @ 23 NONAME ; RCalDavServer::RCalDavServer(void)
	?SyncL@CCalDavSession@@QAEHABVTDesC16@@@Z @ 24 NONAME ; int CCalDavSession::SyncL(class TDesC16 const &)
	?Username@RCalDavServer@@QAEHABVTDesC16@@AAVTDes8@@@Z @ 25 NONAME ; int RCalDavServer::Username(class TDesC16 const &, class TDes8 &)
	?Enable@CCalDavSession@@QAEHABVTDesC16@@@Z @ 26 NONAME ; int CCalDavSession::Enable(class TDesC16 const &)
	?SetUsername@RCalDavServer@@QAEHABVTDesC16@@ABVTDesC8@@@Z @ 27 NONAME ; int RCalDavServer::SetUsername(class TDesC16 const &, class TDesC8 const &)
	?KeepServerEntry@RCalDavServer@@QAEHABVTDesC16@@AAH@Z @ 28 NONAME ; int RCalDavServer::KeepServerEntry(class TDesC16 const &, int &)
	?SetPassword@RCalDavServer@@QAEHABVTDesC16@@ABVTDesC8@@@Z @ 29 NONAME ; int RCalDavServer::SetPassword(class TDesC16 const &, class TDesC8 const &)
	?PastDays@CCalDavSession@@QAEHABVTDesC16@@AAVTTimeIntervalDays@@@Z @ 30 NONAME ; int CCalDavSession::PastDays(class TDesC16 const &, class TTimeIntervalDays &)
	?SetKeepServerEntry@CCalDavSession@@QAEHABVTDesC16@@H@Z @ 31 NONAME ; int CCalDavSession::SetKeepServerEntry(class TDesC16 const &, int)
	?SetKeepServerEntry@RCalDavServer@@QAEHABVTDesC16@@H@Z @ 32 NONAME ; int RCalDavServer::SetKeepServerEntry(class TDesC16 const &, int)
	?NewL@CCalDavSession@@SAPAV1@XZ @ 33 NONAME ; class CCalDavSession * CCalDavSession::NewL(void)
	?Url@CCalDavSession@@QAEHABVTDesC16@@AAVTDes8@@@Z @ 34 NONAME ; int CCalDavSession::Url(class TDesC16 const &, class TDes8 &)
	?SetSyncInterval@RCalDavServer@@QAEHABVTDesC16@@VTTimeIntervalMinutes@@@Z @ 35 NONAME ; int RCalDavServer::SetSyncInterval(class TDesC16 const &, class TTimeIntervalMinutes)
	?Username@CCalDavSession@@QAEHABVTDesC16@@AAVTDes8@@@Z @ 36 NONAME ; int CCalDavSession::Username(class TDesC16 const &, class TDes8 &)
	?Password@CCalDavSession@@QAEHABVTDesC16@@AAVTDes8@@@Z @ 37 NONAME ; int CCalDavSession::Password(class TDesC16 const &, class TDes8 &)
	?Enable@RCalDavServer@@QAEHABVTDesC16@@@Z @ 38 NONAME ; int RCalDavServer::Enable(class TDesC16 const &)
	?SyncInterval@CCalDavSession@@QAEHABVTDesC16@@AAVTTimeIntervalMinutes@@@Z @ 39 NONAME ; int CCalDavSession::SyncInterval(class TDesC16 const &, class TTimeIntervalMinutes &)
	?KeepServerEntry@CCalDavSession@@QAEHABVTDesC16@@AAH@Z @ 40 NONAME ; int CCalDavSession::KeepServerEntry(class TDesC16 const &, int &)
	?SetImmediateSync@RCalDavServer@@QAEHABVTDesC16@@H@Z @ 41 NONAME ; int RCalDavServer::SetImmediateSync(class TDesC16 const &, int)
	?ImmediateSync@CCalDavSession@@QAEHABVTDesC16@@AAH@Z @ 42 NONAME ; int CCalDavSession::ImmediateSync(class TDesC16 const &, int &)
	?SetPassword@CCalDavSession@@QAEHABVTDesC16@@ABVTDesC8@@@Z @ 43 NONAME ; int CCalDavSession::SetPassword(class TDesC16 const &, class TDesC8 const &)

