EXPORTS
	??1CNotepadApi@@UAE@XZ @ 1 NONAME ; CNotepadApi::~CNotepadApi(void)
	??1CNotepadDialogBase@@UAE@XZ @ 2 NONAME ; CNotepadDialogBase::~CNotepadDialogBase(void)
	??1CNotepadEditorDialog@@UAE@XZ @ 3 NONAME ; CNotepadEditorDialog::~CNotepadEditorDialog(void)
	??1CNotepadExternalTextDialog@@UAE@XZ @ 4 NONAME ; CNotepadExternalTextDialog::~CNotepadExternalTextDialog(void)
	??1CNotepadListDialog@@UAE@XZ @ 5 NONAME ; CNotepadListDialog::~CNotepadListDialog(void)
	??1CNotepadModel@@UAE@XZ @ 6 NONAME ; CNotepadModel::~CNotepadModel(void)
	??1CNotepadViewerDialog@@UAE@XZ @ 7 NONAME ; CNotepadViewerDialog::~CNotepadViewerDialog(void)
	?AddContentL@CNotepadApi@@SAXABVTDesC16@@@Z @ 8 NONAME ; void CNotepadApi::AddContentL(class TDesC16 const &)
	?AddContentL@CNotepadModel@@QAEXABVTDesC16@@@Z @ 9 NONAME ; void CNotepadModel::AddContentL(class TDesC16 const &)
	?CNotepadApi_Reserved@CNotepadApi@@EAEXXZ @ 10 NONAME ; void CNotepadApi::CNotepadApi_Reserved(void)
	?CNotepadApi_Reserved_Static@CNotepadApi@@CAXXZ @ 11 NONAME ; void CNotepadApi::CNotepadApi_Reserved_Static(void)
	?CNotepadDialogBase_Reserved@CNotepadDialogBase@@AAEXXZ @ 12 NONAME ; void CNotepadDialogBase::CNotepadDialogBase_Reserved(void)
	?CNotepadEditorDialog_Reserved@CNotepadEditorDialog@@AAEXXZ @ 13 NONAME ; void CNotepadEditorDialog::CNotepadEditorDialog_Reserved(void)
	?CNotepadListDialog_Reserved@CNotepadListDialog@@AAEXXZ @ 14 NONAME ; void CNotepadListDialog::CNotepadListDialog_Reserved(void)
	?CNotepadModel_Reserved@CNotepadModel@@AAEXXZ @ 15 NONAME ; void CNotepadModel::CNotepadModel_Reserved(void)
	?CNotepadViewerDialog_Reserved@CNotepadViewerDialog@@AAEXXZ @ 16 NONAME ; void CNotepadViewerDialog::CNotepadViewerDialog_Reserved(void)
	?Close@CNotepadModel@@QAEXXZ @ 17 NONAME ; void CNotepadModel::Close(void)
	?CreateListDialogL@CNotepadApi@@QAEXH@Z @ 18 NONAME ; void CNotepadApi::CreateListDialogL(int)
	?CreateModelL@CNotepadApi@@QAEXH@Z @ 19 NONAME ; void CNotepadApi::CreateModelL(int)
	?CreateTextEditorDialogL@CNotepadApi@@AAEXPAPAVHBufC16@@AAHABVTDesC16@@22@Z @ 20 NONAME ; void CNotepadApi::CreateTextEditorDialogL(class HBufC16 * *, int &, class TDesC16 const &, class TDesC16 const &, class TDesC16 const &)
	?CreateTextViewerDialogL@CNotepadApi@@AAEXPAPAVHBufC16@@AAHHABVTDesC16@@22@Z @ 21 NONAME ; void CNotepadApi::CreateTextViewerDialogL(class HBufC16 * *, int &, int, class TDesC16 const &, class TDesC16 const &, class TDesC16 const &)
	?CreateViewerDialogL@CNotepadApi@@QAEXABVTDesC16@@PBV2@HHI@Z @ 22 NONAME ; void CNotepadApi::CreateViewerDialogL(class TDesC16 const &, class TDesC16 const *, int, int, unsigned int)
	?CreateViewerDialogL@CNotepadApi@@QAEXH@Z @ 23 NONAME ; void CNotepadApi::CreateViewerDialogL(int)
	?Dialog@CNotepadApi@@QAEPAVCEikDialog@@XZ @ 24 NONAME ; class CEikDialog * CNotepadApi::Dialog(void)
	?EditByKeyL@CNotepadListDialog@@QAEXH@Z @ 25 NONAME ; void CNotepadListDialog::EditByKeyL(int)
	?ExecFileViewerL@CNotepadApi@@SAHABVTDesC16@@PBV2@HHI@Z @ 26 NONAME ; int CNotepadApi::ExecFileViewerL(class TDesC16 const &, class TDesC16 const *, int, int, unsigned int)
	?ExecReadOnlyTextViewerL@CNotepadApi@@SAHABVTDesC16@@00@Z @ 27 NONAME ; int CNotepadApi::ExecReadOnlyTextViewerL(class TDesC16 const &, class TDesC16 const &, class TDesC16 const &)
	?ExecTemplatesL@CNotepadApi@@SAHXZ @ 28 NONAME ; int CNotepadApi::ExecTemplatesL(void)
	?ExecTextEditorL@CNotepadApi@@SAPAVHBufC16@@AAHABVTDesC16@@11@Z @ 29 NONAME ; class HBufC16 * CNotepadApi::ExecTextEditorL(int &, class TDesC16 const &, class TDesC16 const &, class TDesC16 const &)
	?ExecTextViewerL@CNotepadApi@@SAPAVHBufC16@@AAHABVTDesC16@@11@Z @ 30 NONAME ; class HBufC16 * CNotepadApi::ExecTextViewerL(int &, class TDesC16 const &, class TDesC16 const &, class TDesC16 const &)
	?ExecuteLD@CNotepadDialogBase@@QAEHXZ @ 31 NONAME ; int CNotepadDialogBase::ExecuteLD(void)
	?ExecuteLD@CNotepadEditorDialog@@QAEHXZ @ 32 NONAME ; int CNotepadEditorDialog::ExecuteLD(void)
	?ExistsMemoL@CNotepadApi@@SAHH@Z @ 33 NONAME ; int CNotepadApi::ExistsMemoL(int)
	?FetchMemoL@CNotepadApi@@SAPAVHBufC16@@PBVTDesC16@@@Z @ 34 NONAME ; class HBufC16 * CNotepadApi::FetchMemoL(class TDesC16 const *)
	?FetchTemplateL@CNotepadApi@@SAPAVHBufC16@@PBVTDesC16@@@Z @ 35 NONAME ; class HBufC16 * CNotepadApi::FetchTemplateL(class TDesC16 const *)
	?IsOpen@CNotepadModel@@QAEHXZ @ 36 NONAME ; int CNotepadModel::IsOpen(void)
	?LoadFileL@CNotepadViewerDialog@@QAEXXZ @ 37 NONAME ; void CNotepadViewerDialog::LoadFileL(void)
	?MdcaCount@CNotepadModel@@UBEHXZ @ 38 NONAME ; int CNotepadModel::MdcaCount(void) const
	?MdcaPoint@CNotepadModel@@UBE?AVTPtrC16@@H@Z @ 39 NONAME ; class TPtrC16 CNotepadModel::MdcaPoint(int) const
	?Model@CNotepadApi@@QAEPAVCNotepadModel@@XZ @ 40 NONAME ; class CNotepadModel * CNotepadApi::Model(void)
	?NewL@CNotepadApi@@SAPAV1@XZ @ 41 NONAME ; class CNotepadApi * CNotepadApi::NewL(void)
	?NewL@CNotepadEditorDialog@@SAPAV1@HPAVCNotepadModel@@PAVCNotepadListDialog@@PAVCSendUi@@@Z @ 42 NONAME ; class CNotepadEditorDialog * CNotepadEditorDialog::NewL(int, class CNotepadModel *, class CNotepadListDialog *, class CSendUi *)
	?NewL@CNotepadExternalTextDialog@@SAPAV1@PAPAVHBufC16@@AAHABVTDesC16@@22PAPAVCEikDialog@@@Z @ 43 NONAME ; class CNotepadExternalTextDialog * CNotepadExternalTextDialog::NewL(class HBufC16 * *, int &, class TDesC16 const &, class TDesC16 const &, class TDesC16 const &, class CEikDialog * *)
	?NewL@CNotepadListDialog@@SAPAV1@HPAPAVCEikDialog@@@Z @ 44 NONAME ; class CNotepadListDialog * CNotepadListDialog::NewL(int, class CEikDialog * *)
	?NewL@CNotepadModel@@SAPAV1@AAVRFs@@H@Z @ 45 NONAME ; class CNotepadModel * CNotepadModel::NewL(class RFs &, int)
	?NewL@CNotepadViewerDialog@@SAPAV1@HPAPAVCEikDialog@@@Z @ 46 NONAME ; class CNotepadViewerDialog * CNotepadViewerDialog::NewL(int, class CEikDialog * *)
	?NewLC@CNotepadApi@@SAPAV1@XZ @ 47 NONAME ; class CNotepadApi * CNotepadApi::NewLC(void)
	?NumberOfTemplates@CNotepadApi@@SAHXZ @ 48 NONAME ; int CNotepadApi::NumberOfTemplates(void)
	?OpenFileL@CNotepadViewerDialog@@QAEXABVTDesC16@@PBV2@HI@Z @ 49 NONAME ; void CNotepadViewerDialog::OpenFileL(class TDesC16 const &, class TDesC16 const *, int, unsigned int)
	?OpenL@CNotepadModel@@QAEXXZ @ 50 NONAME ; void CNotepadModel::OpenL(void)
	?ProbeMemoL@CNotepadApi@@QAEHH@Z @ 51 NONAME ; int CNotepadApi::ProbeMemoL(int)
	?SaveFileAsMemoL@CNotepadApi@@SAXABVTDesC16@@@Z @ 52 NONAME ; void CNotepadApi::SaveFileAsMemoL(class TDesC16 const &)
	?SaveFileAsMemoL@CNotepadApi@@SAXABVTDesC16@@I@Z @ 53 NONAME ; void CNotepadApi::SaveFileAsMemoL(class TDesC16 const &, unsigned int)
	?SaveL@CNotepadListDialog@@QAEXXZ @ 54 NONAME ; void CNotepadListDialog::SaveL(void)
	?SeekKey@CNotepadModel@@QAEHH@Z @ 55 NONAME ; int CNotepadModel::SeekKey(int)
	?SetFileL@CNotepadViewerDialog@@QAEXABVTDesC16@@PBV2@HI@Z @ 56 NONAME ; void CNotepadViewerDialog::SetFileL(class TDesC16 const &, class TDesC16 const *, int, unsigned int)
	?CreateViewerDialogL@CNotepadApi@@QAEXAAVRFile@@PBVTDesC16@@HHI@Z @ 57 NONAME ; void CNotepadApi::CreateViewerDialogL(class RFile &, class TDesC16 const *, int, int, unsigned int)
	?ExecFileViewerL@CNotepadApi@@SAHAAVRFile@@PBVTDesC16@@HHI@Z @ 58 NONAME ; int CNotepadApi::ExecFileViewerL(class RFile &, class TDesC16 const *, int, int, unsigned int)
	?LoadFileL@CNotepadViewerDialog@@QAEXAAVRFile@@@Z @ 59 NONAME ; void CNotepadViewerDialog::LoadFileL(class RFile &)
	?OpenFileL@CNotepadViewerDialog@@QAEXAAVRFile@@PBVTDesC16@@HI@Z @ 60 NONAME ; void CNotepadViewerDialog::OpenFileL(class RFile &, class TDesC16 const *, int, unsigned int)
	?SaveFileAsMemoL@CNotepadApi@@SAXAAVRFile@@@Z @ 61 NONAME ; void CNotepadApi::SaveFileAsMemoL(class RFile &)
	?SaveFileAsMemoL@CNotepadApi@@SAXAAVRFile@@I@Z @ 62 NONAME ; void CNotepadApi::SaveFileAsMemoL(class RFile &, unsigned int)
	?SetFileL@CNotepadViewerDialog@@QAEXAAVRFile@@PBVTDesC16@@HI@Z @ 63 NONAME ; void CNotepadViewerDialog::SetFileL(class RFile &, class TDesC16 const *, int, unsigned int)

