EXPORTS
	_ZN14CalenDateUtils10IsValidDayERK5TTime @ 1 NONAME
	_ZN14CalenDateUtils11DefaultTimeERK5TTime @ 2 NONAME
	_ZN14CalenDateUtils11IsNullTimeLER8TCalTime @ 3 NONAME
	_ZN14CalenDateUtils11OnSameMonthERK5TTimeS2_ @ 4 NONAME
	_ZN14CalenDateUtils12GetDayRangeLERK5TTimeS2_RN9CalCommon13TCalTimeRangeE @ 5 NONAME
	_ZN14CalenDateUtils14BeginningOfDayERK5TTime @ 6 NONAME
	_ZN14CalenDateUtils16DisplayTimeOnDayERK5TTimeS2_ @ 7 NONAME
	_ZN14CalenDateUtils16LimitToValidTimeERK5TTime @ 8 NONAME
	_ZN14CalenDateUtils19RoundToPreviousHourERK20TTimeIntervalMinutes @ 9 NONAME
	_ZN14CalenDateUtils19RoundToPreviousHourERK5TTime @ 10 NONAME
	_ZN14CalenDateUtils19TimeRangesIntersectERK5TTimeS2_S2_S2_ @ 11 NONAME
	_ZN14CalenDateUtils3NowEv @ 12 NONAME
	_ZN14CalenDateUtils5TodayEv @ 13 NONAME
	_ZN14CalenDateUtils7MaxTimeEv @ 14 NONAME
	_ZN14CalenDateUtils7MinTimeEv @ 15 NONAME
	_ZN14CalenDateUtils9IsOnTodayERK5TTime @ 16 NONAME
	_ZN14CalenDateUtils9OnSameDayERK5TTimeS2_ @ 17 NONAME
	_ZN14CalenDateUtils9TimeOfDayERK5TTime @ 18 NONAME
	_ZN14CalenViewUtils10DateQueryLER5TTimei @ 19 NONAME
	_ZN14CalenViewUtils14IsAlldayEventLERK12CCalInstance @ 20 NONAME
	_ZN14CalenViewUtils23GetSummaryLocationTextLER9CCalEntryR6TDes16i @ 21 NONAME
	_ZN14CalenViewUtils28ShowDateOutOfRangeErrorNoteLEv @ 22 NONAME
	_ZN15CCalenEntryUtil10GetRdatesLEv @ 23 NONAME
	_ZN15CCalenEntryUtil11SetAlarmOnLERK5TTime @ 24 NONAME
	_ZN15CCalenEntryUtil11SetSummaryLERK7TDesC16 @ 25 NONAME
	_ZN15CCalenEntryUtil12SetAlarmOffLEv @ 26 NONAME
	_ZN15CCalenEntryUtil12SetEntryTypeEN9CCalEntry5TTypeE @ 27 NONAME
	_ZN15CCalenEntryUtil12SetLocationLERK7TDesC16 @ 28 NONAME
	_ZN15CCalenEntryUtil12SetPriorityLENS_13TTodoPriorityE @ 29 NONAME
	_ZN15CCalenEntryUtil13IsAllDayEventEv @ 30 NONAME
	_ZN15CCalenEntryUtil13SetEventDateLERK5TTime @ 31 NONAME
	_ZN15CCalenEntryUtil13SetRepeatingLE17TCalenRepeatIndexRK5TTime @ 32 NONAME
	_ZN15CCalenEntryUtil13SetSynchTypeLENS_10TSynchTypeE @ 33 NONAME
	_ZN15CCalenEntryUtil14SetAllDayEventEi @ 34 NONAME
	_ZN15CCalenEntryUtil15SetDescriptionLERK7TDesC16 @ 35 NONAME
	_ZN15CCalenEntryUtil15SetEndDateTimeLERK5TTime @ 36 NONAME
	_ZN15CCalenEntryUtil16AttachmentNamesLER13RPointerArrayI7HBufC16E @ 37 NONAME
	_ZN15CCalenEntryUtil16SetNonRepeatingLEv @ 38 NONAME
	_ZN15CCalenEntryUtil17SetAlarmDateTimeLERK5TTime @ 39 NONAME
	_ZN15CCalenEntryUtil17SetStartDateTimeLERK5TTime @ 40 NONAME
	_ZN15CCalenEntryUtil18SetAttachmentCountEi @ 41 NONAME
	_ZN15CCalenEntryUtil20CheckForAlldayEventLE5TTimeS0_ @ 42 NONAME
	_ZN15CCalenEntryUtil23SetRepeatUntilDateTimeLERK5TTime @ 43 NONAME
	_ZN15CCalenEntryUtil32SetDescriptionTransferOwnershipLEP7HBufC16 @ 44 NONAME
	_ZN15CCalenEntryUtil4NewLER9CCalEntryRK8TCalTime @ 45 NONAME
	_ZN15CCalenNaviLabel16SetLabelObserverEP24MCCalenNaviLabelObserver @ 46 NONAME
	_ZN15CCalenNaviLabel19HandlePointerEventLERK13TPointerEvent @ 47 NONAME
	_ZN15CCalenNaviLabelC1Ev @ 48 NONAME
	_ZN15CCalenNaviLabelC2Ev @ 49 NONAME
	_ZN15CCalenNaviLabelD0Ev @ 50 NONAME
	_ZN15CCalenNaviLabelD1Ev @ 51 NONAME
	_ZN15CCalenNaviLabelD2Ev @ 52 NONAME
	_ZN15CCalenTitlePane11NewAndSwapLEP14CEikStatusPane @ 53 NONAME
	_ZN15CCalenTitlePaneD0Ev @ 54 NONAME
	_ZN15CCalenTitlePaneD1Ev @ 55 NONAME
	_ZN15CCalenTitlePaneD2Ev @ 56 NONAME
	_ZN16CalenAgendaUtils10EntryTimeLERK9CCalEntry @ 57 NONAME
	_ZN16CalenAgendaUtils11IsEmptyTextERK7TDesC16 @ 58 NONAME
	_ZN16CalenAgendaUtils12IsRepeatingLERK9CCalEntry @ 59 NONAME
	_ZN16CalenAgendaUtils13IsTimedEntryLEN9CCalEntry5TTypeE @ 60 NONAME
	_ZN16CalenAgendaUtils16SortInstanceListER13RPointerArrayI12CCalInstanceE @ 61 NONAME
	_ZN16CalenAgendaUtils17EndsAtStartOfDayLEP12CCalInstanceRK5TTime @ 62 NONAME
	_ZN16CalenAgendaUtils21FindTodosForDayRangeLEP16CCalInstanceViewR13RPointerArrayI12CCalInstanceERK5TTimeS8_ @ 63 NONAME
	_ZN16CalenAgendaUtils21SortPopupInstanceListER13RPointerArrayI12CCalInstanceE @ 64 NONAME
	_ZN16CalenAgendaUtils22FindEventsForDayRangeLEP16CCalInstanceViewR13RPointerArrayI12CCalInstanceERKjRK5TTimeSA_ @ 65 NONAME
	_ZN16CalenAgendaUtils24CreateEntryIdListForDayLER13RPointerArrayI12CCalInstanceEP16CCalInstanceViewRK5TTimeii @ 66 NONAME
	_ZN16CalenAgendaUtils30RemoveEntriesEndingAtMidnightLER13RPointerArrayI12CCalInstanceERK5TTime @ 67 NONAME
	_ZN16CalenAgendaUtils9DurationLERK9CCalEntry @ 68 NONAME
	_ZN17CalenNoteDataUtil12RepeatIndexLERK9CCalEntry @ 69 NONAME
	_ZN17CalenNoteDataUtil17GetAlarmDateTimeLERK9CCalEntryR5TTime @ 70 NONAME
	_ZN17CalenNoteDataUtil20IsWorkdaysRepeatingLE9TCalRRule @ 71 NONAME
	_ZN17CalenNoteDataUtil20ShowRepeatTypeQueryLERN9CalCommon16TRecurrenceRangeENS_16TRepeatQueryTypeE @ 72 NONAME
	_ZN18CCalenLocationUtil23IsMapProviderAvailableLEv @ 73 NONAME
	_ZN18CCalenLocationUtil28ShowLocationAppendOrReplaceLER13RPointerArrayI7HBufC16E @ 74 NONAME
	_ZN18CalenActionUiUtils10DateQueryLER5TTimei @ 75 NONAME
	_ZN18CalenActionUiUtils17ShowNewNoteQueryLERP16CDesC16ArrayFlatRP13CArrayFixFlatIiE @ 76 NONAME
	_ZN18CalenActionUiUtils20ShowRepeatTypeQueryLERN9CalCommon16TRecurrenceRangeENS_16TRepeatQueryTypeE @ 77 NONAME
	_ZN18CalenActionUiUtils21FindPossibleInstanceLERK16TCalenInstanceIdR16CCalInstanceView @ 78 NONAME
	_ZN18CalenActionUiUtils22SetToDoCompleteStatusLER13CCalEntryViewP9CCalEntryi @ 79 NONAME
	_ZN18CalenActionUiUtils28ShowDeleteConfirmationQueryLENS_23TDeleteConfirmationTypeEi @ 80 NONAME
	_ZN20CCalenAttachmentInfo10SetFetchedEi @ 81 NONAME
	_ZN20CCalenAttachmentInfo11SetFileNameERK4TBufILi256EE @ 82 NONAME
	_ZN20CCalenAttachmentInfo4NewLER21CCalenAttachmentModelRK4TBufILi256EES5_iiRK9TDataTypeNS_25TCalenAttachmentStoreTypeE @ 83 NONAME
	_ZN21CCalenAttachmentModel11SetObserverEP29MCalenAttachmentModelObserver @ 84 NONAME
	_ZN21CCalenAttachmentModel14AddAttachmentLERK7TDesC16S2_ @ 85 NONAME
	_ZN21CCalenAttachmentModel14AddAttachmentLERK7TDesC16S2_iiRK9TDataTypeR5RFile @ 86 NONAME
	_ZN21CCalenAttachmentModel14BitmapForFileLER20CCalenAttachmentInfo @ 87 NONAME
	_ZN21CCalenAttachmentModel14LoadResourcesLEv @ 88 NONAME
	_ZN21CCalenAttachmentModel16DeleteAttachmentEi @ 89 NONAME
	_ZN21CCalenAttachmentModel18GetAttachmentFileLEi @ 90 NONAME
	_ZN21CCalenAttachmentModel18GetAttachmentListLER13RPointerArrayI20CCalenAttachmentInfoE @ 91 NONAME
	_ZN21CCalenAttachmentModel28CheckForExistingAttachmentsLEP9CCalEntry @ 92 NONAME
	_ZN21CCalenAttachmentModel4NewLEv @ 93 NONAME
	_ZN21CCalenAttachmentModel5ResetEv @ 94 NONAME
	_ZN21CCalenAttachmentUtils10FetchFileLENS_24TCalenAttachmentFileTypeER12CDesC16ArrayP20CAiwGenericParamListiiP16MMGFetchVerifier @ 95 NONAME
	_ZN21CCalenAttachmentUtils11GetMimeTypeE5RFile @ 96 NONAME
	_ZN21CCalenAttachmentUtils12GetFileSizeLERK7TDesC16 @ 97 NONAME
	_ZN21CCalenAttachmentUtils12GetMimeTypeLERK7TDesC16 @ 98 NONAME
	_ZN21CCalenAttachmentUtils13FetchAnyFileLER4TBufILi256EEP25MAknFileSelectionObserverP14MAknFileFilter @ 99 NONAME
	_ZN21CCalenAttachmentUtils15OpenAttachmentLER5RFileR25MAknServerAppExitObserver @ 100 NONAME
	_ZN21CCalenAttachmentUtils15SaveAttachmentLER5RFileR25MAknServerAppExitObserver @ 101 NONAME
	_ZN21CCalenAttachmentUtils22GetCalenEditorTempPathER4TBufILi256EEPK7TDesC16 @ 102 NONAME
	_ZN21CCalenStatusPaneUtils12HideNaviPaneEv @ 103 NONAME
	_ZN21CCalenStatusPaneUtils12SetTitleTextEP7HBufC16 @ 104 NONAME
	_ZN21CCalenStatusPaneUtils13SetTitleTextLER6TDes16 @ 105 NONAME
	_ZN21CCalenStatusPaneUtils13ShowNaviPaneLERK5TTime @ 106 NONAME
	_ZN21CCalenStatusPaneUtils17RefreshStatusPaneEv @ 107 NONAME
	_ZN21CCalenStatusPaneUtils18UnderLineTitleTextEi @ 108 NONAME
	_ZN21CCalenStatusPaneUtils19DayNameByActiveTimeER6TDes16RK5TTime @ 109 NONAME
	_ZN21CCalenStatusPaneUtils21MonthNameByActiveTimeER6TDes16RK5TTime @ 110 NONAME
	_ZN21CCalenStatusPaneUtils21WeekNameByActiveTimeLERK5TTime4TDay15TCalenWeekTitle @ 111 NONAME
	_ZN21CCalenStatusPaneUtils4NewLEP14CEikStatusPane @ 112 NONAME
	_ZN21CCalenStatusPaneUtilsD0Ev @ 113 NONAME
	_ZN21CCalenStatusPaneUtilsD1Ev @ 114 NONAME
	_ZN21CCalenStatusPaneUtilsD2Ev @ 115 NONAME
	_ZNK15CCalenEntryUtil10RepeatTypeEv @ 116 NONAME
	_ZNK15CCalenEntryUtil11DescriptionEv @ 117 NONAME
	_ZNK15CCalenEntryUtil11EndDateTimeEv @ 118 NONAME
	_ZNK15CCalenEntryUtil11IsRepeatingEv @ 119 NONAME
	_ZNK15CCalenEntryUtil13AlarmDateTimeEv @ 120 NONAME
	_ZNK15CCalenEntryUtil13EventDateTimeEv @ 121 NONAME
	_ZNK15CCalenEntryUtil13StartDateTimeEv @ 122 NONAME
	_ZNK15CCalenEntryUtil15AttachmentCountEv @ 123 NONAME
	_ZNK15CCalenEntryUtil16IsAlarmActivatedEv @ 124 NONAME
	_ZNK15CCalenEntryUtil19RepeatUntilDateTimeEv @ 125 NONAME
	_ZNK15CCalenEntryUtil6StatusEv @ 126 NONAME
	_ZNK15CCalenEntryUtil7SummaryEv @ 127 NONAME
	_ZNK15CCalenEntryUtil8LocationEv @ 128 NONAME
	_ZNK15CCalenEntryUtil8PriorityEv @ 129 NONAME
	_ZNK15CCalenEntryUtil9EntryTypeEv @ 130 NONAME
	_ZNK15CCalenEntryUtil9SynchTypeEv @ 131 NONAME
	_ZNK20CCalenAttachmentInfo10SizeStringEv @ 132 NONAME
	_ZNK20CCalenAttachmentInfo14SystemFileNameEv @ 133 NONAME
	_ZNK20CCalenAttachmentInfo4IconEv @ 134 NONAME
	_ZNK20CCalenAttachmentInfo4SizeEv @ 135 NONAME
	_ZNK20CCalenAttachmentInfo8DataTypeEv @ 136 NONAME
	_ZNK20CCalenAttachmentInfo8FileNameEv @ 137 NONAME
	_ZNK20CCalenAttachmentInfo9IsFetchedEv @ 138 NONAME
	_ZNK20CCalenAttachmentInfo9StoreTypeEv @ 139 NONAME
	_ZNK21CCalenAttachmentModel13NumberOfItemsEv @ 140 NONAME
	_ZNK21CCalenAttachmentModel16AttachmentInfoAtEi @ 141 NONAME
	_ZTI15CCalenEntryUtil @ 142 NONAME
	_ZTI20CCalenAttachmentInfo @ 143 NONAME
	_ZTI21CCalenAttachmentModel @ 144 NONAME
	_ZTV15CCalenEntryUtil @ 145 NONAME
	_ZTV20CCalenAttachmentInfo @ 146 NONAME
	_ZTV21CCalenAttachmentModel @ 147 NONAME
	_ZN18CCalenMultiCalUtil23GetNextAvailableOffsetLEv @ 148 NONAME
	_ZN18CCalenMultiCalUtil24GetNextAvailableCalFileLEv @ 149 NONAME
	_ZN21CCalenAttachmentModel14AttachmentOpenERi @ 150 NONAME
	_ZN21CCalenAttachmentModel16IsAttachmentOpenEv @ 151 NONAME

