EXPORTS
	?SolarTerm@CCalenLunarLocalizedInfo@@QAEABVTDesC16@@XZ @ 1 NONAME ; class TDesC16 const & CCalenLunarLocalizedInfo::SolarTerm(void)
	?GetLunarInfoL@CCalenLunarInfoProvider@@QAE?AVTCalenLunarInfo@@ABVTTime@@@Z @ 2 NONAME ; class TCalenLunarInfo CCalenLunarInfoProvider::GetLunarInfoL(class TTime const &)
	?AnimalYear@TCalenLunarInfo@@QAE?AW4TAnimalYear@1@XZ @ 3 NONAME ; enum TCalenLunarInfo::TAnimalYear TCalenLunarInfo::AnimalYear(void)
	??0CCalenLunarLocalizer@@IAE@XZ @ 4 NONAME ; CCalenLunarLocalizer::CCalenLunarLocalizer(void)
	?AnimalYear@CCalenLunarLocalizedInfo@@QAEABVTDesC16@@XZ @ 5 NONAME ; class TDesC16 const & CCalenLunarLocalizedInfo::AnimalYear(void)
	??1CCalenExtraRowFormatter@@UAE@XZ @ 6 NONAME ; CCalenExtraRowFormatter::~CCalenExtraRowFormatter(void)
	?LunarMonthAndDay@CCalenLunarLocalizedInfo@@QAEABVTDesC16@@XZ @ 7 NONAME ; class TDesC16 const & CCalenLunarLocalizedInfo::LunarMonthAndDay(void)
	?GetField@CCalenLunarLocalizedInfo@@QAEABVTDesC16@@W4TField@1@@Z @ 8 NONAME ; class TDesC16 const & CCalenLunarLocalizedInfo::GetField(enum CCalenLunarLocalizedInfo::TField)
	?HasSolarTerm@TCalenLunarInfo@@QAEHXZ @ 9 NONAME ; int TCalenLunarInfo::HasSolarTerm(void)
	??1CCalenLunarLocalizer@@UAE@XZ @ 10 NONAME ; CCalenLunarLocalizer::~CCalenLunarLocalizer(void)
	?LunarYear@CCalenLunarLocalizedInfo@@QAEABVTDesC16@@XZ @ 11 NONAME ; class TDesC16 const & CCalenLunarLocalizedInfo::LunarYear(void)
	?CheckSolarTermDateL@CCalenSolarTerms@@QAEHABVTDateTime@@@Z @ 12 NONAME ; int CCalenSolarTerms::CheckSolarTermDateL(class TDateTime const &)
	?Festival@CCalenLunarLocalizedInfo@@QAEABVTDesC16@@XZ @ 13 NONAME ; class TDesC16 const & CCalenLunarLocalizedInfo::Festival(void)
	?NewL@CCalenLunarInfoProvider@@SAPAV1@AAVRFs@@@Z @ 14 NONAME ; class CCalenLunarInfoProvider * CCalenLunarInfoProvider::NewL(class RFs &)
	?LocalizeL@CCalenLunarLocalizer@@UAEPAVCCalenLunarLocalizedInfo@@AAVTCalenLunarInfo@@@Z @ 15 NONAME ; class CCalenLunarLocalizedInfo * CCalenLunarLocalizer::LocalizeL(class TCalenLunarInfo &)
	?NewL@CCalenLunarLocalizer@@SAPAV1@XZ @ 16 NONAME ; class CCalenLunarLocalizer * CCalenLunarLocalizer::NewL(void)
	?NewL@CCalenLunarLocalizedInfo@@SAPAV1@XZ @ 17 NONAME ; class CCalenLunarLocalizedInfo * CCalenLunarLocalizedInfo::NewL(void)
	?FullLunarDate@CCalenLunarLocalizedInfo@@QAEABVTDesC16@@XZ @ 18 NONAME ; class TDesC16 const & CCalenLunarLocalizedInfo::FullLunarDate(void)
	?GetExtraRowTextL@CCalenLunarLocalizer@@UAE?AVTPtrC16@@AAVCCalenLunarLocalizedInfo@@HABVCFont@@H@Z @ 19 NONAME ; class TPtrC16 CCalenLunarLocalizer::GetExtraRowTextL(class CCalenLunarLocalizedInfo &, int, class CFont const &, int)
	?GregorianDate@CCalenLunarLocalizedInfo@@QAEABVTDesC16@@XZ @ 20 NONAME ; class TDesC16 const & CCalenLunarLocalizedInfo::GregorianDate(void)
	?FormatExtraRowInformationL@CCalenExtraRowFormatter@@QAE?AVTPtrC16@@AAVCCalenLunarLocalizedInfo@@AAV?$RArray@W4TField@CCalenLunarLocalizedInfo@@@@HABVCFont@@H@Z @ 21 NONAME ; class TPtrC16 CCalenExtraRowFormatter::FormatExtraRowInformationL(class CCalenLunarLocalizedInfo &, class RArray<enum CCalenLunarLocalizedInfo::TField> &, int, class CFont const &, int)
	?NewL@CCalenSolarTerms@@SAPAV1@AAVRFs@@@Z @ 22 NONAME ; class CCalenSolarTerms * CCalenSolarTerms::NewL(class RFs &)
	?HasFestival@TCalenLunarInfo@@QAEHXZ @ 23 NONAME ; int TCalenLunarInfo::HasFestival(void)
	??1CCalenLunarLocalizedInfo@@UAE@XZ @ 24 NONAME ; CCalenLunarLocalizedInfo::~CCalenLunarLocalizedInfo(void)
	??1CCalenLunarInfoProvider@@UAE@XZ @ 25 NONAME ; CCalenLunarInfoProvider::~CCalenLunarInfoProvider(void)
	?NewL@CCalenExtraRowFormatter@@SAPAV1@XZ @ 26 NONAME ; class CCalenExtraRowFormatter * CCalenExtraRowFormatter::NewL(void)
	?ConstructL@CCalenLunarLocalizer@@IAEXXZ @ 27 NONAME ; void CCalenLunarLocalizer::ConstructL(void)
	??1CCalenSolarTerms@@UAE@XZ @ 28 NONAME ; CCalenSolarTerms::~CCalenSolarTerms(void)

